(lp0
(lp1
(lp2
I3
aa(lp3
I12
aa(lp4
I14
aa(lp5
I19
aa(lp6
I21
aaa(lp7
(lp8
I5
aa(lp9
I7
aa(lp10
I15
aaa(lp11
(lp12
I0
aa(lp13
I9
aaa(lp14
(lp15
I0
aa(lp16
I5
aa(lp17
I16
aa(lp18
I27
aaa(lp19
(lp20
I10
aa(lp21
I26
aa(lp22
I38
aaa(lp23
(lp24
I7
aaa(lp25
(lp26
I4
aaa(lp27
(lp28
I0
aa(lp29
I3
aa(lp30
I11
aaa(lp31
(lp32
I9
aa(lp33
I11
aaa(lp34
(lp35
I0
aa(lp36
I7
aa(lp37
I10
aaa(lp38
(lp39
I0
aaa(lp40
(lp41
I7
aaa(lp42
(lp43
I4
aa(lp44
I6
aaa(lp45
(lp46
I0
aa(lp47
I8
aa(lp48
I12
aaa(lp49
(lp50
I0
aa(lp51
I8
aa(lp52
I12
aaa(lp53
(lp54
I0
aI1
aI2
aI3
aI4
aa(lp55
I14
aa(lp56
I20
aa(lp57
I22
aa(lp58
I24
aa(lp59
I26
aa(lp60
I29
aaa(lp61
(lp62
I0
aa(lp63
I4
aa(lp64
I20
aaa(lp65
(lp66
I4
aa(lp67
I6
aaa(lp68
(lp69
I15
aa(lp70
I61
aaa(lp71
(lp72
I8
aa(lp73
I42
aaa(lp74
a(lp75
a(lp76
(lp77
I3
aaa(lp78
a(lp79
(lp80
I8
aa(lp81
I53
aaa(lp82
(lp83
I15
aaa(lp84
(lp85
I0
aaa(lp86
(lp87
I11
aaa(lp88
(lp89
I52
aaa(lp90
(lp91
I4
aa(lp92
I39
aaa(lp93
(lp94
I0
aaa(lp95
(lp96
I4
aa(lp97
I9
aI10
aI11
aI12
aI13
aa(lp98
I15
aa(lp99
I26
aa(lp100
I28
aaa(lp101
a(lp102
(lp103
I1
aI2
aI3
aI4
aI5
aaa(lp104
(lp105
I1
aa(lp106
I6
aI7
aI8
aI9
aI10
aa(lp107
I28
aI29
aI30
aI31
aI32
aaa(lp108
(lp109
I6
aaa(lp110
(lp111
I9
aaa(lp112
(lp113
I5
aaa(lp114
(lp115
I2
aaa(lp116
(lp117
I5
aaa(lp118
(lp119
I3
aaa(lp120
(lp121
I2
aaa(lp122
(lp123
I7
aaa(lp124
(lp125
I5
aaa(lp126
a(lp127
(lp128
I7
aaa(lp129
(lp130
I8
aaa(lp131
(lp132
I9
aa(lp133
I11
aI12
aI13
aI14
aa(lp134
I16
aa(lp135
I18
aa(lp136
I20
aa(lp137
I22
aa(lp138
I24
aa(lp139
I26
aa(lp140
I28
aa(lp141
I30
aa(lp142
I32
aa(lp143
I34
aI35
aI36
aI37
aa(lp144
I40
aa(lp145
I52
aa(lp146
I55
aI56
aaa(lp147
(lp148
I11
aa(lp149
I13
aaa(lp150
(lp151
I0
aa(lp152
I5
aa(lp153
I7
aa(lp154
I10
aaa(lp155
(lp156
I1
aa(lp157
I9
aa(lp158
I11
aI12
aa(lp159
I26
aaa(lp160
(lp161
I0
aI1
aI2
aI3
aa(lp162
I14
aa(lp163
I16
aI17
aI18
aI19
aaa(lp164
(lp165
I9
aI10
aa(lp166
I40
aa(lp167
I43
aaa(lp168
(lp169
I8
aa(lp170
I10
aI11
aI12
aI13
aaa(lp171
a(lp172
(lp173
I0
aa(lp174
I2
aa(lp175
I8
aaa(lp176
(lp177
I3
aa(lp178
I8
aa(lp179
I10
aaa(lp180
a(lp181
(lp182
I0
aa(lp183
I2
aa(lp184
I6
aaa(lp185
(lp186
I3
aa(lp187
I13
aa(lp188
I15
aaa(lp189
a(lp190
(lp191
I0
aa(lp192
I2
aa(lp193
I9
aaa(lp194
(lp195
I14
aa(lp196
I20
aaa(lp197
(lp198
I0
aa(lp199
I2
aa(lp200
I8
aaa(lp201
(lp202
I4
aa(lp203
I9
aa(lp204
I11
aaa(lp205
(lp206
I0
aa(lp207
I20
aI21
aa(lp208
I25
aaa(lp209
(lp210
I10
aaa(lp211
(lp212
I14
aa(lp213
I17
aa(lp214
I33
aaa(lp215
(lp216
I4
aa(lp217
I13
aaa(lp218
(lp219
I3
aa(lp220
I13
aaa(lp221
(lp222
I0
aa(lp223
I18
aa(lp224
I20
aaa(lp225
(lp226
I6
aa(lp227
I12
aa(lp228
I24
aaa(lp229
(lp230
I4
aa(lp231
I6
aaa(lp232
(lp233
I0
aa(lp234
I5
aa(lp235
I10
aaa(lp236
(lp237
I13
aaa(lp238
a(lp239
(lp240
I0
aa(lp241
I12
aa(lp242
I14
aaa(lp243
(lp244
I2
aa(lp245
I4
aaa(lp246
(lp247
I0
aa(lp248
I12
aa(lp249
I14
aaa(lp250
(lp251
I2
aa(lp252
I4
aaa(lp253
(lp254
I0
aI1
aI2
aI3
aa(lp255
I9
aa(lp256
I11
aa(lp257
I17
aaa(lp258
(lp259
I3
aa(lp260
I13
aa(lp261
I16
aaa(lp262
(lp263
I1
aI2
aI3
aI4
aa(lp264
I19
aa(lp265
I28
aaa(lp266
(lp267
I0
aa(lp268
I4
aI5
aa(lp269
I8
aa(lp270
I12
aa(lp271
I19
aI20
aa(lp272
I22
aaa(lp273
(lp274
I16
aI17
aa(lp275
I19
aaa(lp276
(lp277
I11
aI12
aa(lp278
I14
aa(lp279
I18
aaa(lp280
(lp281
I5
aa(lp282
I11
aI12
aa(lp283
I14
aa(lp284
I21
aa(lp285
I27
aI28
aa(lp286
I30
aaa(lp287
a(lp288
a(lp289
(lp290
I4
aa(lp291
I10
aI11
aI12
aa(lp292
I14
aa(lp293
I18
aa(lp294
I20
aa(lp295
I23
aa(lp296
I25
aa(lp297
I29
aa(lp298
I31
aaa(lp299
(lp300
I2
aa(lp301
I14
aaa(lp302
(lp303
I0
aa(lp304
I6
aa(lp305
I8
aaa(lp306
a(lp307
(lp308
I7
aaa(lp309
(lp310
I13
aI14
aa(lp311
I17
aa(lp312
I19
aa(lp313
I22
aa(lp314
I24
aa(lp315
I27
aa(lp316
I29
aa(lp317
I32
aa(lp318
I34
aa(lp319
I37
aa(lp320
I39
aa(lp321
I42
aa(lp322
I44
aa(lp323
I47
aa(lp324
I49
aa(lp325
I53
aa(lp326
I55
aaa(lp327
(lp328
I7
aaa(lp329
(lp330
I4
aa(lp331
I6
aa(lp332
I18
aaa(lp333
(lp334
I2
aa(lp335
I4
aa(lp336
I11
aI12
aaa(lp337
(lp338
I3
aa(lp339
I11
aI12
aa(lp340
I14
aaa(lp341
(lp342
I10
aa(lp343
I13
aaa(lp344
(lp345
I0
aa(lp346
I4
aa(lp347
I7
aa(lp348
I16
aaa(lp349
(lp350
I8
aaa(lp351
(lp352
I20
aa(lp353
I37
aa(lp354
I39
aa(lp355
I43
aaa(lp356
a(lp357
a(lp358
a(lp359
a(lp360
(lp361
I3
aaa(lp362
a(lp363
(lp364
I13
aa(lp365
I15
aa(lp366
I21
aI22
aaa(lp367
(lp368
I7
aI8
aa(lp369
I10
aa(lp370
I34
aaa(lp371
(lp372
I6
aa(lp373
I13
aI14
aaa(lp374
(lp375
I3
aa(lp376
I5
aa(lp377
I7
aa(lp378
I12
aI13
aaa(lp379
(lp380
I0
aa(lp381
I8
aa(lp382
I11
aa(lp383
I19
aa(lp384
I24
aa(lp385
I31
aI32
aa(lp386
I40
aa(lp387
I50
aa(lp388
I54
aa(lp389
I56
aa(lp390
I68
aI69
aa(lp391
I86
aa(lp392
I90
aa(lp393
I92
aa(lp394
I100
aaa(lp395
(lp396
I0
aI1
aa(lp397
I5
aa(lp398
I12
aI13
aI14
aI15
aI16
aI17
aI18
aI19
aaa(lp399
(lp400
I9
aa(lp401
I12
aI13
aaa(lp402
(lp403
I0
aa(lp404
I5
aa(lp405
I30
aaa(lp406
a(lp407
(lp408
I5
aa(lp409
I10
aa(lp410
I12
aaa(lp411
(lp412
I6
aa(lp413
I8
aa(lp414
I26
aaa(lp415
(lp416
I0
aa(lp417
I6
aaa(lp418
(lp419
I0
aa(lp420
I7
aa(lp421
I13
aaa(lp422
a(lp423
(lp424
I9
aaa(lp425
a(lp426
(lp427
I0
aa(lp428
I7
aa(lp429
I20
aaa(lp430
(lp431
I0
aa(lp432
I2
aa(lp433
I18
aa(lp434
I20
aI21
aI22
aaa(lp435
(lp436
I10
aa(lp437
I12
aaa(lp438
(lp439
I0
aa(lp440
I16
aa(lp441
I23
aa(lp442
I25
aI26
aaa(lp443
a(lp444
(lp445
I2
aa(lp446
I5
aaa(lp447
(lp448
I0
aa(lp449
I16
aaa(lp450
(lp451
I6
aa(lp452
I8
aaa(lp453
(lp454
I0
aa(lp455
I6
aa(lp456
I13
aa(lp457
I20
aaa(lp458
(lp459
I12
aa(lp460
I24
aa(lp461
I34
aa(lp462
I43
aaa(lp463
(lp464
I12
aaa(lp465
(lp466
I2
aa(lp467
I9
aaa(lp468
(lp469
I0
aa(lp470
I19
aa(lp471
I24
aaa(lp472
(lp473
I0
aa(lp474
I14
aaa(lp475
(lp476
I3
aa(lp477
I7
aaa(lp478
(lp479
I0
aa(lp480
I18
aa(lp481
I23
aaa(lp482
(lp483
I3
aa(lp484
I9
aa(lp485
I22
aaa(lp486
(lp487
I4
aa(lp488
I8
aa(lp489
I16
aaa(lp490
a(lp491
(lp492
I6
aa(lp493
I8
aa(lp494
I12
aaa(lp495
(lp496
I12
aa(lp497
I15
aI16
aI17
aa(lp498
I24
aI25
aa(lp499
I32
aaa(lp500
(lp501
I19
aa(lp502
I24
aaa(lp503
(lp504
I11
aI12
aa(lp505
I14
aa(lp506
I16
aI17
aI18
aI19
aI20
aa(lp507
I25
aa(lp508
I28
aa(lp509
I30
aI31
aa(lp510
I36
aa(lp511
I39
aa(lp512
I41
aI42
aa(lp513
I44
aI45
aa(lp514
I50
aa(lp515
I53
aa(lp516
I55
aa(lp517
I57
aI58
aa(lp518
I60
aI61
aaa(lp519
(lp520
I0
aa(lp521
I5
aI6
aaa(lp522
(lp523
I0
aI1
aa(lp524
I19
aaa(lp525
(lp526
I0
aI1
aa(lp527
I17
aaa(lp528
(lp529
I2
aaa(lp530
(lp531
I0
aI1
aa(lp532
I15
aaa(lp533
(lp534
I1
aa(lp535
I8
aI9
aaa(lp536
(lp537
I4
aI5
aaa(lp538
(lp539
I3
aI4
aI5
aI6
aa(lp540
I8
aa(lp541
I26
aI27
aa(lp542
I30
aa(lp543
I32
aa(lp544
I35
aa(lp545
I37
aI38
aI39
aa(lp546
I42
aa(lp547
I45
aI46
aa(lp548
I49
aI50
aa(lp549
I53
aaa(lp550
a(lp551
(lp552
I1
aa(lp553
I5
aaa(lp554
(lp555
I9
aaa(lp556
(lp557
I1
aa(lp558
I3
aI4
aa(lp559
I6
aI7
aa(lp560
I10
aaa(lp561
(lp562
I0
aa(lp563
I13
aI14
aa(lp564
I16
aa(lp565
I31
aa(lp566
I33
aa(lp567
I37
aaa(lp568
(lp569
I0
aa(lp570
I4
aI5
aa(lp571
I7
aa(lp572
I9
aa(lp573
I11
aa(lp574
I14
aaa(lp575
(lp576
I0
aa(lp577
I3
aa(lp578
I15
aaa(lp579
a(lp580
(lp581
I5
aa(lp582
I7
aaa(lp583
(lp584
I4
aa(lp585
I10
aI11
aa(lp586
I28
aaa(lp587
(lp588
I0
aa(lp589
I14
aa(lp590
I16
aI17
aaa(lp591
(lp592
I0
aI1
aI2
aa(lp593
I4
aI5
aa(lp594
I11
aI12
aaa(lp595
a(lp596
(lp597
I0
aa(lp598
I6
aa(lp599
I8
aa(lp600
I11
aI12
aaa(lp601
(lp602
I0
aa(lp603
I9
aaa(lp604
(lp605
I9
aa(lp606
I11
aa(lp607
I34
aa(lp608
I36
aI37
aI38
aaa(lp609
(lp610
I0
aa(lp611
I9
aa(lp612
I22
aaa(lp613
(lp614
I1
aI2
aI3
aaa(lp615
(lp616
I4
aI5
aI6
aI7
aaa(lp617
(lp618
I0
aI1
aa(lp619
I4
aa(lp620
I15
aI16
aaa(lp621
(lp622
I3
aI4
aaa(lp623
(lp624
I0
aa(lp625
I2
aa(lp626
I12
aaa(lp627
(lp628
I4
aaa(lp629
(lp630
I4
aa(lp631
I13
aa(lp632
I23
aaa(lp633
(lp634
I2
aa(lp635
I4
aaa(lp636
(lp637
I9
aa(lp638
I13
aa(lp639
I15
aaa(lp640
a(lp641
(lp642
I5
aa(lp643
I8
aI9
aa(lp644
I11
aI12
aa(lp645
I14
aI15
aI16
aaa(lp646
(lp647
I5
aaa(lp648
a(lp649
(lp650
I0
aa(lp651
I7
aa(lp652
I9
aa(lp653
I17
aaa(lp654
a(lp655
(lp656
I13
aaa(lp657
(lp658
I5
aaa(lp659
(lp660
I14
aaa(lp661
(lp662
I1
aa(lp663
I3
aa(lp664
I10
aI11
aa(lp665
I25
aa(lp666
I32
aa(lp667
I34
aaa(lp668
(lp669
I15
aaa(lp670
(lp671
I7
aa(lp672
I9
aaa(lp673
(lp674
I0
aaa(lp675
(lp676
I0
aa(lp677
I6
aaa(lp678
a(lp679
(lp680
I0
aI1
aa(lp681
I7
aaa(lp682
(lp683
I0
aa(lp684
I6
aa(lp685
I12
aaa(lp686
(lp687
I0
aa(lp688
I10
aI11
aaa(lp689
(lp690
I3
aa(lp691
I5
aI6
aI7
aI8
aaa(lp692
(lp693
I1
aa(lp694
I6
aI7
aaa(lp695
a(lp696
(lp697
I6
aa(lp698
I9
aaa(lp699
a(lp700
(lp701
I8
aaa(lp702
(lp703
I1
aa(lp704
I3
aa(lp705
I16
aaa(lp706
(lp707
I4
aaa(lp708
(lp709
I9
aa(lp710
I15
aI16
aa(lp711
I18
aI19
aaa(lp712
(lp713
I11
aaa(lp714
(lp715
I2
aa(lp716
I4
aI5
aa(lp717
I7
aI8
aaa(lp718
(lp719
I0
aI1
aI2
aI3
aI4
aI5
aaa(lp720
(lp721
I5
aaa(lp722
a(lp723
(lp724
I1
aaa(lp725
a(lp726
a(lp727
(lp728
I0
aaa(lp729
(lp730
I0
aaa(lp731
(lp732
I18
aaa(lp733
(lp734
I6
aI7
aa(lp735
I9
aI10
aa(lp736
I28
aI29
aI30
aa(lp737
I34
aa(lp738
I36
aaa(lp739
(lp740
I10
aa(lp741
I22
aaa(lp742
(lp743
I11
aI12
aa(lp744
I17
aa(lp745
I19
aa(lp746
I21
aa(lp747
I24
aI25
aa(lp748
I27
aI28
aI29
aa(lp749
I34
aa(lp750
I36
aa(lp751
I38
aa(lp752
I40
aa(lp753
I43
aI44
aa(lp754
I49
aa(lp755
I51
aa(lp756
I53
aaa(lp757
a(lp758
(lp759
I4
aa(lp760
I6
aa(lp761
I8
aa(lp762
I13
aa(lp763
I15
aa(lp764
I17
aa(lp765
I20
aaa(lp766
(lp767
I25
aaa(lp768
a(lp769
(lp770
I5
aa(lp771
I7
aI8
aa(lp772
I15
aa(lp773
I17
aI18
aaa(lp774
(lp775
I0
aa(lp776
I7
aaa(lp777
a(lp778
(lp779
I6
aa(lp780
I12
aI13
aa(lp781
I15
aa(lp782
I17
aa(lp783
I19
aa(lp784
I21
aa(lp785
I24
aa(lp786
I27
aI28
aa(lp787
I30
aa(lp788
I32
aa(lp789
I34
aaa(lp790
(lp791
I13
aaa(lp792
(lp793
I10
aaa(lp794
(lp795
I4
aa(lp796
I8
aa(lp797
I11
aI12
aI13
aI14
aI15
aI16
aaa(lp798
a(lp799
(lp800
I9
aa(lp801
I11
aaa(lp802
a(lp803
(lp804
I8
aa(lp805
I10
aaa(lp806
(lp807
I7
aa(lp808
I9
aa(lp809
I12
aa(lp810
I18
aa(lp811
I24
aaa(lp812
(lp813
I3
aa(lp814
I5
aa(lp815
I11
aaa(lp816
(lp817
I5
aa(lp818
I11
aaa(lp819
(lp820
I0
aa(lp821
I9
aaa(lp822
(lp823
I5
aa(lp824
I13
aa(lp825
I16
aaa(lp826
(lp827
I0
aa(lp828
I8
aaa(lp829
(lp830
I3
aa(lp831
I6
aaa(lp832
(lp833
I11
aa(lp834
I16
aaa(lp835
a(lp836
(lp837
I0
aa(lp838
I4
aa(lp839
I6
aI7
aI8
aI9
aI10
aI11
aa(lp840
I16
aa(lp841
I18
aa(lp842
I20
aa(lp843
I22
aa(lp844
I24
aa(lp845
I26
aa(lp846
I29
aa(lp847
I31
aa(lp848
I33
aa(lp849
I38
aa(lp850
I42
aa(lp851
I44
aI45
aa(lp852
I48
aa(lp853
I50
aI51
aI52
aI53
aa(lp854
I61
aa(lp855
I66
aa(lp856
I71
aa(lp857
I73
aaa(lp858
(lp859
I0
aaa(lp860
(lp861
I3
aa(lp862
I18
aaa(lp863
(lp864
I0
aa(lp865
I7
aI8
aaa(lp866
(lp867
I3
aI4
aa(lp868
I6
aI7
aa(lp869
I9
aa(lp870
I12
aaa(lp871
(lp872
I3
aa(lp873
I10
aI11
aa(lp874
I13
aI14
aaa(lp875
(lp876
I6
aa(lp877
I10
aa(lp878
I12
aa(lp879
I14
aa(lp880
I16
aa(lp881
I19
aaa(lp882
(lp883
I3
aa(lp884
I26
aI27
aI28
aI29
aI30
aaa(lp885
(lp886
I13
aa(lp887
I16
aa(lp888
I40
aa(lp889
I42
aa(lp890
I44
aa(lp891
I46
aa(lp892
I48
aaa(lp893
a(lp894
(lp895
I2
aaa(lp896
(lp897
I4
aa(lp898
I21
aaa(lp899
(lp900
I0
aa(lp901
I2
aa(lp902
I6
aI7
aa(lp903
I11
aaa(lp904
(lp905
I1
aa(lp906
I4
aa(lp907
I10
aI11
aaa(lp908
(lp909
I4
aaa(lp910
(lp911
I0
aa(lp912
I2
aa(lp913
I5
aa(lp914
I25
aaa(lp915
(lp916
I0
aI1
aa(lp917
I3
aa(lp918
I15
aaa(lp919
a(lp920
(lp921
I0
aa(lp922
I2
aaa(lp923
(lp924
I0
aa(lp925
I3
aaa(lp926
(lp927
I0
aI1
aa(lp928
I3
aa(lp929
I13
aI14
aa(lp930
I18
aaa(lp931
(lp932
I8
aaa(lp933
(lp934
I0
aa(lp935
I3
aI4
aI5
aI6
aI7
aI8
aI9
aa(lp936
I17
aaa(lp937
(lp938
I0
aa(lp939
I2
aa(lp940
I8
aaa(lp941
(lp942
I0
aa(lp943
I12
aaa(lp944
(lp945
I0
aa(lp946
I2
aa(lp947
I8
aI9
aI10
aI11
aa(lp948
I19
aaa(lp949
a(lp950
(lp951
I8
aa(lp952
I18
aI19
aI20
aI21
aaa(lp953
(lp954
I5
aI6
aaa(lp955
(lp956
I1
aa(lp957
I11
aa(lp958
I13
aaa(lp959
(lp960
I8
aa(lp961
I10
aa(lp962
I23
aa(lp963
I35
aaa(lp964
(lp965
I9
aa(lp966
I21
aaa(lp967
(lp968
I3
aa(lp969
I7
aaa(lp970
(lp971
I12
aaa(lp972
(lp973
I7
aaa(lp974
(lp975
I0
aa(lp976
I5
aa(lp977
I10
aaa(lp978
(lp979
I6
aa(lp980
I10
aa(lp981
I12
aaa(lp982
(lp983
I3
aa(lp984
I5
aa(lp985
I8
aI9
aaa(lp986
(lp987
I1
aa(lp988
I28
aaa(lp989
(lp990
I18
aa(lp991
I28
aaa(lp992
(lp993
I21
aa(lp994
I28
aaa(lp995
(lp996
I6
aaa(lp997
(lp998
I10
aa(lp999
I20
aaa(lp1000
(lp1001
I2
aa(lp1002
I4
aa(lp1003
I18
aa(lp1004
I24
aaa(lp1005
(lp1006
I10
aa(lp1007
I17
aaa(lp1008
(lp1009
I6
aa(lp1010
I14
aa(lp1011
I16
aa(lp1012
I19
aI20
aaa(lp1013
(lp1014
I3
aa(lp1015
I6
aa(lp1016
I8
aaa(lp1017
(lp1018
I1
aa(lp1019
I9
aa(lp1020
I11
aa(lp1021
I17
aa(lp1022
I20
aaa(lp1023
(lp1024
I2
aaa(lp1025
(lp1026
I5
aa(lp1027
I11
aaa(lp1028
(lp1029
I15
aa(lp1030
I17
aa(lp1031
I19
aa(lp1032
I22
aaa(lp1033
(lp1034
I3
aa(lp1035
I5
aa(lp1036
I17
aaa(lp1037
a(lp1038
(lp1039
I0
aa(lp1040
I5
aa(lp1041
I8
aI9
aI10
aI11
aa(lp1042
I21
aa(lp1043
I29
aaa(lp1044
(lp1045
I3
aa(lp1046
I5
aa(lp1047
I11
aaa(lp1048
(lp1049
I22
aaa(lp1050
(lp1051
I16
aa(lp1052
I18
aa(lp1053
I25
aa(lp1054
I32
aa(lp1055
I35
aa(lp1056
I37
aa(lp1057
I44
aa(lp1058
I54
aaa(lp1059
(lp1060
I4
aaa(lp1061
(lp1062
I17
aa(lp1063
I26
aaa(lp1064
(lp1065
I14
aa(lp1066
I16
aa(lp1067
I18
aa(lp1068
I20
aa(lp1069
I23
aI24
aaa(lp1070
a(lp1071
a(lp1072
(lp1073
I22
aa(lp1074
I24
aI25
aa(lp1075
I27
aa(lp1076
I29
aa(lp1077
I31
aa(lp1078
I33
aa(lp1079
I35
aa(lp1080
I37
aa(lp1081
I39
aa(lp1082
I42
aaa(lp1083
(lp1084
I11
aaa(lp1085
(lp1086
I12
aa(lp1087
I14
aI15
aa(lp1088
I17
aa(lp1089
I19
aa(lp1090
I21
aa(lp1091
I24
aaa(lp1092
(lp1093
I0
aa(lp1094
I19
aa(lp1095
I22
aaa(lp1096
(lp1097
I0
aa(lp1098
I22
aa(lp1099
I25
aaa(lp1100
(lp1101
I2
aa(lp1102
I4
aa(lp1103
I8
aa(lp1104
I13
aa(lp1105
I15
aa(lp1106
I18
aa(lp1107
I20
aaa(lp1108
(lp1109
I0
aaa(lp1110
(lp1111
I12
aa(lp1112
I39
aI40
aa(lp1113
I42
aI43
aa(lp1114
I45
aI46
aI47
aa(lp1115
I50
aI51
aaa(lp1116
(lp1117
I3
aa(lp1118
I5
aa(lp1119
I7
aa(lp1120
I9
aa(lp1121
I11
aa(lp1122
I13
aa(lp1123
I27
aaa(lp1124
(lp1125
I18
aaa(lp1126
(lp1127
I10
aa(lp1128
I12
aa(lp1129
I30
aaa(lp1130
(lp1131
I4
aI5
aaa(lp1132
a(lp1133
(lp1134
I11
aa(lp1135
I13
aa(lp1136
I16
aa(lp1137
I31
aaa(lp1138
(lp1139
I8
aaa(lp1140
(lp1141
I5
aI6
aaa(lp1142
(lp1143
I16
aa(lp1144
I27
aaa(lp1145
(lp1146
I4
aI5
aa(lp1147
I21
aa(lp1148
I25
aa(lp1149
I27
aa(lp1150
I29
aa(lp1151
I32
aa(lp1152
I34
aa(lp1153
I36
aI37
aa(lp1154
I39
aa(lp1155
I41
aaa(lp1156
(lp1157
I5
aI6
aaa(lp1158
(lp1159
I6
aa(lp1160
I10
aa(lp1161
I12
aa(lp1162
I14
aa(lp1163
I16
aa(lp1164
I18
aa(lp1165
I22
aI23
aa(lp1166
I27
aaa(lp1167
(lp1168
I4
aa(lp1169
I6
aI7
aaa(lp1170
a(lp1171
(lp1172
I14
aa(lp1173
I16
aa(lp1174
I18
aa(lp1175
I20
aa(lp1176
I22
aa(lp1177
I32
aa(lp1178
I41
aaa(lp1179
(lp1180
I0
aa(lp1181
I12
aa(lp1182
I18
aI19
aaa(lp1183
(lp1184
I22
aI23
aaa(lp1185
(lp1186
I0
aa(lp1187
I2
aI3
aI4
aI5
aI6
aa(lp1188
I10
aa(lp1189
I12
aa(lp1190
I15
aa(lp1191
I22
aa(lp1192
I47
aa(lp1193
I73
aa(lp1194
I75
aa(lp1195
I77
aa(lp1196
I79
aa(lp1197
I81
aa(lp1198
I83
aa(lp1199
I86
aaa(lp1200
a(lp1201
(lp1202
I7
aa(lp1203
I29
aa(lp1204
I31
aa(lp1205
I33
aa(lp1206
I47
aaa(lp1207
(lp1208
I2
aa(lp1209
I4
aaa(lp1210
(lp1211
I6
aa(lp1212
I8
aa(lp1213
I10
aa(lp1214
I12
aa(lp1215
I16
aa(lp1216
I23
aaa(lp1217
(lp1218
I9
aaa(lp1219
(lp1220
I6
aaa(lp1221
(lp1222
I7
aaa(lp1223
(lp1224
I5
aa(lp1225
I12
aa(lp1226
I37
aaa(lp1227
(lp1228
I3
aa(lp1229
I5
aa(lp1230
I8
aaa(lp1231
(lp1232
I1
aa(lp1233
I15
aa(lp1234
I23
aaa(lp1235
(lp1236
I1
aI2
aa(lp1237
I10
aa(lp1238
I18
aI19
aI20
aa(lp1239
I24
aaa(lp1240
(lp1241
I2
aa(lp1242
I6
aa(lp1243
I8
aa(lp1244
I10
aa(lp1245
I12
aa(lp1246
I15
aaa(lp1247
(lp1248
I4
aa(lp1249
I6
aaa(lp1250
(lp1251
I3
aa(lp1252
I6
aa(lp1253
I10
aaa(lp1254
(lp1255
I2
aa(lp1256
I5
aa(lp1257
I19
aaa(lp1258
(lp1259
I4
aa(lp1260
I10
aaa(lp1261
(lp1262
I6
aaa(lp1263
a(lp1264
a(lp1265
(lp1266
I9
aa(lp1267
I10
aa(lp1268
I12
aaa(lp1269
a(lp1270
(lp1271
I6
aaa(lp1272
(lp1273
I7
aa(lp1274
I22
aa(lp1275
I52
aI53
aaa(lp1276
(lp1277
I17
aI18
aaa(lp1278
(lp1279
I0
aa(lp1280
I5
aa(lp1281
I20
aaa(lp1282
(lp1283
I11
aa(lp1284
I21
aaa(lp1285
(lp1286
I8
aa(lp1287
I11
aI12
aa(lp1288
I14
aa(lp1289
I19
aa(lp1290
I32
aaa(lp1291
(lp1292
I9
aa(lp1293
I20
aaa(lp1294
(lp1295
I8
aa(lp1296
I15
aI16
aaa(lp1297
(lp1298
I0
aa(lp1299
I9
aa(lp1300
I27
aaa(lp1301
(lp1302
I11
aa(lp1303
I16
aa(lp1304
I20
aI21
aI22
aI23
aaa(lp1305
(lp1306
I3
aaa(lp1307
(lp1308
I1
aa(lp1309
I7
aa(lp1310
I14
aa(lp1311
I23
aa(lp1312
I25
aaa(lp1313
(lp1314
I3
aa(lp1315
I11
aI12
aaa(lp1316
(lp1317
I5
aa(lp1318
I13
aaa(lp1319
(lp1320
I3
aa(lp1321
I5
aa(lp1322
I14
aaa(lp1323
(lp1324
I9
aa(lp1325
I12
aI13
aI14
aI15
aaa(lp1326
(lp1327
I0
aa(lp1328
I2
aa(lp1329
I6
aI7
aa(lp1330
I9
aaa(lp1331
(lp1332
I4
aaa(lp1333
(lp1334
I18
aaa(lp1335
(lp1336
I9
aa(lp1337
I17
aa(lp1338
I19
aaa(lp1339
(lp1340
I0
aaa(lp1341
(lp1342
I14
aa(lp1343
I17
aa(lp1344
I22
aa(lp1345
I24
aa(lp1346
I26
aa(lp1347
I28
aa(lp1348
I30
aa(lp1349
I32
aa(lp1350
I34
aa(lp1351
I37
aI38
aa(lp1352
I41
aa(lp1353
I44
aa(lp1354
I47
aa(lp1355
I49
aa(lp1356
I52
aaa(lp1357
(lp1358
I5
aa(lp1359
I23
aa(lp1360
I25
aa(lp1361
I29
aI30
aI31
aa(lp1362
I40
aa(lp1363
I49
aI50
aI51
aI52
aa(lp1364
I60
aa(lp1365
I62
aaa(lp1366
(lp1367
I5
aa(lp1368
I7
aa(lp1369
I13
aaa(lp1370
(lp1371
I10
aa(lp1372
I30
aa(lp1373
I32
aa(lp1374
I35
aa(lp1375
I40
aa(lp1376
I42
aa(lp1377
I44
aa(lp1378
I46
aI47
aa(lp1379
I49
aa(lp1380
I52
aa(lp1381
I55
aa(lp1382
I58
aa(lp1383
I60
aa(lp1384
I63
aI64
aaa(lp1385
(lp1386
I0
aa(lp1387
I12
aa(lp1388
I15
aI16
aaa(lp1389
(lp1390
I6
aa(lp1391
I12
aa(lp1392
I27
aa(lp1393
I39
aaa(lp1394
(lp1395
I0
aa(lp1396
I3
aI4
aI5
aI6
aa(lp1397
I8
aaa(lp1398
(lp1399
I2
aI3
aI4
aI5
aa(lp1400
I7
aa(lp1401
I9
aa(lp1402
I11
aa(lp1403
I14
aa(lp1404
I18
aI19
aaa(lp1405
a(lp1406
(lp1407
I1
aa(lp1408
I6
aa(lp1409
I20
aaa(lp1410
(lp1411
I0
aa(lp1412
I4
aa(lp1413
I9
aa(lp1414
I17
aI18
aa(lp1415
I22
aaa(lp1416
(lp1417
I13
aaa(lp1418
(lp1419
I2
aa(lp1420
I10
aaa(lp1421
(lp1422
I10
aa(lp1423
I15
aa(lp1424
I17
aa(lp1425
I20
aaa(lp1426
(lp1427
I0
aa(lp1428
I9
aI10
aI11
aI12
aI13
aI14
aa(lp1429
I16
aa(lp1430
I18
aI19
aa(lp1431
I21
aa(lp1432
I24
aI25
aaa(lp1433
a(lp1434
(lp1435
I9
aI10
aI11
aaa(lp1436
(lp1437
I2
aa(lp1438
I17
aI18
aaa(lp1439
(lp1440
I0
aa(lp1441
I30
aaa(lp1442
(lp1443
I8
aa(lp1444
I32
aaa(lp1445
(lp1446
I12
aaa(lp1447
(lp1448
I9
aa(lp1449
I19
aa(lp1450
I37
aaa(lp1451
(lp1452
I0
aa(lp1453
I27
aa(lp1454
I29
aa(lp1455
I33
aI34
aaa(lp1456
(lp1457
I12
aa(lp1458
I14
aa(lp1459
I20
aa(lp1460
I23
aaa(lp1461
(lp1462
I0
aa(lp1463
I11
aa(lp1464
I23
aaa(lp1465
(lp1466
I4
aaa(lp1467
(lp1468
I17
aa(lp1469
I19
aa(lp1470
I26
aaa(lp1471
(lp1472
I0
aaa(lp1473
(lp1474
I11
aa(lp1475
I26
aa(lp1476
I28
aa(lp1477
I30
aa(lp1478
I33
aa(lp1479
I35
aa(lp1480
I39
aI40
aa(lp1481
I45
aa(lp1482
I47
aa(lp1483
I50
aaa(lp1484
(lp1485
I9
aaa(lp1486
(lp1487
I3
aI4
aa(lp1488
I7
aa(lp1489
I9
aI10
aI11
aI12
aI13
aI14
aI15
aa(lp1490
I17
aa(lp1491
I20
aaa(lp1492
(lp1493
I0
aa(lp1494
I11
aa(lp1495
I23
aaa(lp1496
(lp1497
I4
aaa(lp1498
(lp1499
I17
aa(lp1500
I19
aa(lp1501
I26
aaa(lp1502
(lp1503
I3
aI4
aI5
aI6
aa(lp1504
I12
aa(lp1505
I20
aI21
aa(lp1506
I24
aa(lp1507
I26
aa(lp1508
I28
aa(lp1509
I31
aI32
aaa(lp1510
(lp1511
I2
aa(lp1512
I7
aaa(lp1513
(lp1514
I2
aI3
aI4
aI5
aI6
aI7
aa(lp1515
I9
aI10
aI11
aI12
aa(lp1516
I17
aa(lp1517
I19
aa(lp1518
I21
aa(lp1519
I24
aa(lp1520
I45
aI46
aI47
aaa(lp1521
a(lp1522
(lp1523
I0
aa(lp1524
I8
aa(lp1525
I21
aI22
aI23
aa(lp1526
I25
aa(lp1527
I43
aa(lp1528
I56
aaa(lp1529
(lp1530
I4
aa(lp1531
I6
aaa(lp1532
(lp1533
I0
aa(lp1534
I10
aa(lp1535
I24
aaa(lp1536
(lp1537
I0
aa(lp1538
I2
aa(lp1539
I8
aaa(lp1540
a(lp1541
(lp1542
I1
aa(lp1543
I3
aa(lp1544
I5
aaa(lp1545
(lp1546
I0
aa(lp1547
I2
aI3
aa(lp1548
I7
aa(lp1549
I9
aI10
aa(lp1550
I19
aa(lp1551
I25
aa(lp1552
I27
aI28
aaa(lp1553
(lp1554
I0
aa(lp1555
I15
aa(lp1556
I20
aI21
aaa(lp1557
(lp1558
I5
aa(lp1559
I7
aa(lp1560
I32
aI33
aa(lp1561
I44
aaa(lp1562
(lp1563
I1
aa(lp1564
I8
aa(lp1565
I11
aaa(lp1566
(lp1567
I11
aa(lp1568
I21
aI22
aaa(lp1569
(lp1570
I7
aa(lp1571
I13
aaa(lp1572
(lp1573
I0
aI1
aa(lp1574
I6
aa(lp1575
I11
aI12
aI13
aaa(lp1576
(lp1577
I0
aI1
aaa(lp1578
a(lp1579
(lp1580
I9
aaa(lp1581
(lp1582
I2
aa(lp1583
I8
aaa(lp1584
(lp1585
I0
aaa(lp1586
(lp1587
I1
aa(lp1588
I41
aaa(lp1589
a(lp1590
(lp1591
I0
aa(lp1592
I2
aa(lp1593
I5
aa(lp1594
I19
aa(lp1595
I21
aa(lp1596
I24
aa(lp1597
I30
aa(lp1598
I35
aaa(lp1599
(lp1600
I13
aa(lp1601
I21
aa(lp1602
I29
aa(lp1603
I31
aa(lp1604
I43
aa(lp1605
I73
aaa(lp1606
(lp1607
I3
aa(lp1608
I5
aa(lp1609
I8
aa(lp1610
I15
aaa(lp1611
a(lp1612
(lp1613
I0
aa(lp1614
I10
aaa(lp1615
(lp1616
I1
aI2
aI3
aI4
aa(lp1617
I11
aa(lp1618
I13
aI14
aaa(lp1619
(lp1620
I0
aI1
aI2
aa(lp1621
I13
aI14
aI15
aa(lp1622
I17
aI18
aa(lp1623
I24
aI25
aI26
aaa(lp1624
(lp1625
I0
aa(lp1626
I16
aa(lp1627
I21
aa(lp1628
I38
aa(lp1629
I41
aa(lp1630
I53
aaa(lp1631
(lp1632
I0
aa(lp1633
I6
aa(lp1634
I8
aa(lp1635
I16
aa(lp1636
I20
aa(lp1637
I24
aaa(lp1638
(lp1639
I0
aa(lp1640
I9
aa(lp1641
I20
aa(lp1642
I31
aaa(lp1643
(lp1644
I0
aI1
aI2
aI3
aa(lp1645
I6
aa(lp1646
I27
aaa(lp1647
(lp1648
I0
aa(lp1649
I5
aI6
aI7
aaa(lp1650
(lp1651
I3
aa(lp1652
I9
aI10
aa(lp1653
I12
aI13
aa(lp1654
I16
aI17
aI18
aI19
aI20
aaa(lp1655
(lp1656
I0
aa(lp1657
I9
aa(lp1658
I20
aa(lp1659
I35
aaa(lp1660
(lp1661
I0
aa(lp1662
I15
aa(lp1663
I26
aa(lp1664
I33
aaa(lp1665
(lp1666
I1
aa(lp1667
I14
aa(lp1668
I36
aaa(lp1669
(lp1670
I0
aa(lp1671
I9
aa(lp1672
I20
aa(lp1673
I34
aaa(lp1674
(lp1675
I0
aa(lp1676
I19
aa(lp1677
I30
aa(lp1678
I37
aaa(lp1679
(lp1680
I0
aa(lp1681
I11
aa(lp1682
I29
aa(lp1683
I36
aI37
aI38
aaa(lp1684
(lp1685
I15
aa(lp1686
I18
aI19
aa(lp1687
I27
aaa(lp1688
(lp1689
I3
aI4
aa(lp1690
I10
aa(lp1691
I18
aa(lp1692
I22
aaa(lp1693
(lp1694
I0
aa(lp1695
I3
aI4
aa(lp1696
I12
aaa(lp1697
a(lp1698
(lp1699
I8
aa(lp1700
I10
aI11
aI12
aI13
aaa(lp1701
(lp1702
I2
aI3
aI4
aa(lp1703
I21
aaa(lp1704
(lp1705
I1
aaa(lp1706
a(lp1707
(lp1708
I0
aI1
aI2
aa(lp1709
I8
aaa(lp1710
(lp1711
I3
aaa(lp1712
(lp1713
I3
aa(lp1714
I11
aI12
aaa(lp1715
(lp1716
I0
aa(lp1717
I6
aa(lp1718
I22
aa(lp1719
I30
aI31
aI32
aa(lp1720
I56
aI57
aI58
aaa(lp1721
a(lp1722
(lp1723
I8
aa(lp1724
I28
aaa(lp1725
(lp1726
I1
aa(lp1727
I12
aa(lp1728
I30
aaa(lp1729
(lp1730
I20
aa(lp1731
I28
aaa(lp1732
a(lp1733
(lp1734
I1
aI2
aI3
aa(lp1735
I10
aI11
aaa(lp1736
(lp1737
I0
aI1
aa(lp1738
I3
aa(lp1739
I12
aI13
aI14
aa(lp1740
I16
aaa(lp1741
(lp1742
I5
aI6
aaa(lp1743
a(lp1744
a(lp1745
(lp1746
I4
aa(lp1747
I7
aI8
aa(lp1748
I29
aaa(lp1749
(lp1750
I0
aI1
aaa(lp1751
a(lp1752
(lp1753
I1
aI2
aa(lp1754
I11
aa(lp1755
I16
aaa(lp1756
(lp1757
I12
aI13
aa(lp1758
I18
aa(lp1759
I20
aa(lp1760
I23
aI24
aa(lp1761
I29
aa(lp1762
I31
aa(lp1763
I36
aaa(lp1764
a(lp1765
a(lp1766
(lp1767
I3
aa(lp1768
I8
aa(lp1769
I10
aI11
aa(lp1770
I13
aI14
aa(lp1771
I17
aa(lp1772
I26
aa(lp1773
I28
aaa(lp1774
(lp1775
I5
aI6
aaa(lp1776
(lp1777
I5
aI6
aa(lp1778
I8
aa(lp1779
I10
aa(lp1780
I12
aa(lp1781
I15
aa(lp1782
I17
aa(lp1783
I20
aa(lp1784
I22
aI23
aa(lp1785
I25
aI26
aI27
aI28
aI29
aI30
aa(lp1786
I33
aaa(lp1787
a(lp1788
(lp1789
I0
aa(lp1790
I11
aI12
aaa(lp1791
(lp1792
I12
aa(lp1793
I16
aaa(lp1794
(lp1795
I23
aa(lp1796
I25
aI26
aaa(lp1797
a(lp1798
(lp1799
I2
aa(lp1800
I7
aaa(lp1801
(lp1802
I9
aaa(lp1803
(lp1804
I2
aaa(lp1805
(lp1806
I0
aaa(lp1807
(lp1808
I4
aaa(lp1809
(lp1810
I0
aaa(lp1811
(lp1812
I6
aa(lp1813
I8
aa(lp1814
I18
aI19
aI20
aa(lp1815
I22
aaa(lp1816
(lp1817
I0
aa(lp1818
I6
aa(lp1819
I9
aI10
aaa(lp1820
(lp1821
I16
aaa(lp1822
(lp1823
I6
aa(lp1824
I7
aaa(lp1825
(lp1826
I14
aaa(lp1827
(lp1828
I0
aaa(lp1829
(lp1830
I7
aa(lp1831
I24
aa(lp1832
I26
aa(lp1833
I28
aa(lp1834
I30
aa(lp1835
I32
aa(lp1836
I34
aa(lp1837
I41
aa(lp1838
I44
aa(lp1839
I46
aa(lp1840
I48
aa(lp1841
I50
aa(lp1842
I52
aa(lp1843
I54
aa(lp1844
I58
aa(lp1845
I60
aa(lp1846
I62
aI63
aa(lp1847
I66
aa(lp1848
I68
aa(lp1849
I70
aa(lp1850
I72
aa(lp1851
I74
aa(lp1852
I76
aa(lp1853
I78
aa(lp1854
I81
aaa(lp1855
(lp1856
I4
aaa(lp1857
(lp1858
I5
aa(lp1859
I12
aaa(lp1860
(lp1861
I8
aaa(lp1862
(lp1863
I14
aI15
aI16
aa(lp1864
I19
aa(lp1865
I22
aaa(lp1866
a(lp1867
(lp1868
I3
aI4
aI5
aa(lp1869
I7
aaa(lp1870
(lp1871
I12
aa(lp1872
I32
aa(lp1873
I34
aa(lp1874
I38
aaa(lp1875
(lp1876
I14
aa(lp1877
I16
aa(lp1878
I22
aI23
aI24
aa(lp1879
I27
aaa(lp1880
a(lp1881
(lp1882
I0
aaa(lp1883
(lp1884
I10
aa(lp1885
I13
aa(lp1886
I18
aa(lp1887
I25
aa(lp1888
I46
aa(lp1889
I48
aa(lp1890
I56
aa(lp1891
I58
aa(lp1892
I60
aa(lp1893
I62
aa(lp1894
I64
aa(lp1895
I66
aa(lp1896
I68
aa(lp1897
I70
aa(lp1898
I72
aa(lp1899
I74
aaa(lp1900
(lp1901
I3
aa(lp1902
I10
aa(lp1903
I33
aaa(lp1904
(lp1905
I6
aI7
aI8
aI9
aa(lp1906
I13
aa(lp1907
I21
aaa(lp1908
(lp1909
I6
aaa(lp1910
(lp1911
I3
aaa(lp1912
(lp1913
I2
aa(lp1914
I4
aaa(lp1915
(lp1916
I12
aa(lp1917
I16
aa(lp1918
I34
aaa(lp1919
(lp1920
I7
aaa(lp1921
a(lp1922
a(lp1923
(lp1924
I8
aa(lp1925
I13
aI14
aa(lp1926
I29
aaa(lp1927
(lp1928
I6
aa(lp1929
I25
aaa(lp1930
a(lp1931
(lp1932
I0
aaa(lp1933
(lp1934
I11
aaa(lp1935
(lp1936
I13
aa(lp1937
I22
aaa(lp1938
(lp1939
I1
aa(lp1940
I11
aa(lp1941
I33
aa(lp1942
I36
aaa(lp1943
(lp1944
I10
aa(lp1945
I35
aaa(lp1946
(lp1947
I9
aa(lp1948
I11
aa(lp1949
I22
aa(lp1950
I41
aaa(lp1951
(lp1952
I5
aaa(lp1953
a(lp1954
(lp1955
I3
aa(lp1956
I5
aaa(lp1957
(lp1958
I4
aaa(lp1959
(lp1960
I9
aa(lp1961
I12
aI13
aaa(lp1962
(lp1963
I3
aI4
aa(lp1964
I9
aa(lp1965
I11
aa(lp1966
I19
aaa(lp1967
a(lp1968
a(lp1969
a(lp1970
(lp1971
I22
aaa(lp1972
(lp1973
I16
aI17
aa(lp1974
I20
aaa(lp1975
(lp1976
I0
aa(lp1977
I10
aa(lp1978
I18
aaa(lp1979
(lp1980
I2
aa(lp1981
I14
aaa(lp1982
(lp1983
I2
aa(lp1984
I14
aa(lp1985
I26
aaa(lp1986
(lp1987
I25
aa(lp1988
I29
aa(lp1989
I31
aI32
aI33
aaa(lp1990
(lp1991
I2
aaa(lp1992
(lp1993
I3
aa(lp1994
I5
aa(lp1995
I12
aa(lp1996
I15
aaa(lp1997
(lp1998
I13
aaa(lp1999
(lp2000
I0
aa(lp2001
I6
aI7
aa(lp2002
I9
aI10
aa(lp2003
I12
aa(lp2004
I14
aa(lp2005
I16
aI17
aa(lp2006
I20
aaa(lp2007
(lp2008
I13
aaa(lp2009
(lp2010
I11
aaa(lp2011
(lp2012
I6
aI7
aaa(lp2013
(lp2014
I0
aI1
aa(lp2015
I6
aa(lp2016
I8
aa(lp2017
I10
aa(lp2018
I12
aa(lp2019
I15
aa(lp2020
I24
aa(lp2021
I27
aI28
aaa(lp2022
(lp2023
I7
aaa(lp2024
(lp2025
I1
aI2
aa(lp2026
I17
aI18
aaa(lp2027
(lp2028
I0
aa(lp2029
I4
aa(lp2030
I24
aaa(lp2031
(lp2032
I12
aa(lp2033
I24
aaa(lp2034
(lp2035
I1
aa(lp2036
I18
aaa(lp2037
(lp2038
I5
aa(lp2039
I14
aaa(lp2040
(lp2041
I3
aa(lp2042
I7
aaa(lp2043
(lp2044
I0
aa(lp2045
I3
aI4
aI5
aI6
aa(lp2046
I8
aaa(lp2047
(lp2048
I2
aI3
aI4
aI5
aa(lp2049
I7
aa(lp2050
I9
aa(lp2051
I11
aa(lp2052
I16
aa(lp2053
I27
aa(lp2054
I29
aa(lp2055
I31
aaa(lp2056
a(lp2057
(lp2058
I0
aa(lp2059
I4
aa(lp2060
I8
aa(lp2061
I17
aa(lp2062
I19
aI20
aaa(lp2063
(lp2064
I12
aaa(lp2065
(lp2066
I3
aa(lp2067
I10
aaa(lp2068
(lp2069
I0
aa(lp2070
I12
aa(lp2071
I17
aa(lp2072
I24
aa(lp2073
I30
aa(lp2074
I32
aaa(lp2075
(lp2076
I0
aa(lp2077
I11
aa(lp2078
I13
aaa(lp2079
a(lp2080
a(lp2081
(lp2082
I6
aa(lp2083
I19
aaa(lp2084
(lp2085
I7
aa(lp2086
I13
aaa(lp2087
(lp2088
I4
aaa(lp2089
(lp2090
I3
aa(lp2091
I5
aI6
aaa(lp2092
(lp2093
I0
aa(lp2094
I3
aa(lp2095
I11
aaa(lp2096
(lp2097
I0
aI1
aa(lp2098
I7
aa(lp2099
I16
aI17
aI18
aa(lp2100
I20
aaa(lp2101
a(lp2102
(lp2103
I4
aI5
aa(lp2104
I11
aI12
aaa(lp2105
(lp2106
I0
aa(lp2107
I3
aa(lp2108
I11
aaa(lp2109
(lp2110
I0
aI1
aa(lp2111
I7
aa(lp2112
I16
aI17
aI18
aa(lp2113
I20
aaa(lp2114
a(lp2115
(lp2116
I4
aI5
aa(lp2117
I11
aI12
aaa(lp2118
(lp2119
I0
aa(lp2120
I9
aI10
aI11
aaa(lp2121
(lp2122
I7
aaa(lp2123
(lp2124
I0
aaa(lp2125
(lp2126
I6
aI7
aa(lp2127
I22
aa(lp2128
I25
aaa(lp2129
(lp2130
I32
aI33
aa(lp2131
I38
aa(lp2132
I41
aa(lp2133
I43
aI44
aa(lp2134
I46
aa(lp2135
I48
aI49
aa(lp2136
I51
aI52
aa(lp2137
I54
aa(lp2138
I56
aa(lp2139
I58
aa(lp2140
I60
aa(lp2141
I62
aa(lp2142
I65
aaa(lp2143
(lp2144
I8
aa(lp2145
I18
aI19
aI20
aI21
aaa(lp2146
(lp2147
I2
aaa(lp2148
(lp2149
I0
aa(lp2150
I8
aI9
aa(lp2151
I12
aa(lp2152
I14
aa(lp2153
I17
aaa(lp2154
(lp2155
I0
aa(lp2156
I7
aaa(lp2157
(lp2158
I0
aaa(lp2159
(lp2160
I7
aI8
aaa(lp2161
(lp2162
I10
aaa(lp2163
(lp2164
I1
aI2
aI3
aI4
aI5
aI6
aI7
aa(lp2165
I14
aI15
aaa(lp2166
(lp2167
I0
aaa(lp2168
(lp2169
I10
aI11
aI12
aI13
aa(lp2170
I17
aI18
aI19
aI20
aa(lp2171
I25
aa(lp2172
I44
aa(lp2173
I48
aI49
aI50
aI51
aaa(lp2174
(lp2175
I3
aa(lp2176
I15
aa(lp2177
I21
aa(lp2178
I33
aa(lp2179
I38
aa(lp2180
I42
aI43
aI44
aI45
aI46
aa(lp2181
I49
aa(lp2182
I59
aaa(lp2183
(lp2184
I5
aa(lp2185
I15
aaa(lp2186
(lp2187
I1
aa(lp2188
I3
aa(lp2189
I34
aaa(lp2190
(lp2191
I9
aa(lp2192
I17
aaa(lp2193
(lp2194
I28
aa(lp2195
I31
aa(lp2196
I36
aaa(lp2197
(lp2198
I0
aa(lp2199
I2
aa(lp2200
I4
aa(lp2201
I6
aa(lp2202
I8
aa(lp2203
I11
aI12
aI13
aI14
aaa(lp2204
(lp2205
I0
aa(lp2206
I2
aa(lp2207
I4
aa(lp2208
I6
aa(lp2209
I13
aaa(lp2210
a(lp2211
(lp2212
I0
aa(lp2213
I11
aa(lp2214
I18
aaa(lp2215
(lp2216
I0
aa(lp2217
I7
aa(lp2218
I16
aaa(lp2219
(lp2220
I0
aa(lp2221
I2
aa(lp2222
I26
aaa(lp2223
(lp2224
I0
aa(lp2225
I2
aa(lp2226
I23
aaa(lp2227
(lp2228
I27
aa(lp2229
I29
aa(lp2230
I31
aa(lp2231
I33
aa(lp2232
I35
aa(lp2233
I37
aa(lp2234
I40
aa(lp2235
I47
aa(lp2236
I65
aa(lp2237
I67
aa(lp2238
I69
aa(lp2239
I71
aa(lp2240
I74
aa(lp2241
I87
aaa(lp2242
(lp2243
I14
aa(lp2244
I17
aaa(lp2245
(lp2246
I0
aaa(lp2247
(lp2248
I15
aaa(lp2249
(lp2250
I0
aI1
aa(lp2251
I4
aa(lp2252
I7
aI8
aa(lp2253
I14
aI15
aa(lp2254
I20
aa(lp2255
I22
aa(lp2256
I24
aa(lp2257
I26
aa(lp2258
I29
aa(lp2259
I36
aaa(lp2260
(lp2261
I11
aaa(lp2262
(lp2263
I8
aa(lp2264
I26
aI27
aa(lp2265
I30
aa(lp2266
I45
aI46
aI47
aaa(lp2267
a(lp2268
(lp2269
I0
aaa(lp2270
(lp2271
I19
aa(lp2272
I37
aaa(lp2273
(lp2274
I8
aa(lp2275
I10
aa(lp2276
I19
aaa(lp2277
(lp2278
I12
aa(lp2279
I18
aI19
aaa(lp2280
(lp2281
I1
aa(lp2282
I3
aa(lp2283
I8
aa(lp2284
I16
aa(lp2285
I25
aI26
aI27
aaa(lp2286
(lp2287
I2
aa(lp2288
I4
aaa(lp2289
a(lp2290
(lp2291
I7
aa(lp2292
I9
aa(lp2293
I11
aa(lp2294
I17
aa(lp2295
I23
aaa(lp2296
(lp2297
I3
aa(lp2298
I5
aa(lp2299
I11
aaa(lp2300
(lp2301
I5
aa(lp2302
I11
aaa(lp2303
(lp2304
I0
aa(lp2305
I9
aaa(lp2306
(lp2307
I5
aa(lp2308
I13
aa(lp2309
I16
aaa(lp2310
(lp2311
I0
aa(lp2312
I8
aaa(lp2313
(lp2314
I3
aa(lp2315
I6
aaa(lp2316
(lp2317
I11
aa(lp2318
I16
aaa(lp2319
a(lp2320
(lp2321
I0
aa(lp2322
I5
aI6
aa(lp2323
I8
aI9
aa(lp2324
I17
aa(lp2325
I22
aI23
aaa(lp2326
(lp2327
I4
aI5
aaa(lp2328
(lp2329
I4
aaa(lp2330
a(lp2331
(lp2332
I7
aI8
aa(lp2333
I10
aI11
aI12
aaa(lp2334
(lp2335
I0
aa(lp2336
I2
aa(lp2337
I9
aI10
aaa(lp2338
(lp2339
I0
aI1
aI2
aa(lp2340
I6
aI7
aa(lp2341
I13
aI14
aa(lp2342
I16
aI17
aI18
aaa(lp2343
(lp2344
I0
aa(lp2345
I5
aI6
aa(lp2346
I8
aa(lp2347
I20
aaa(lp2348
(lp2349
I0
aa(lp2350
I5
aa(lp2351
I7
aI8
aa(lp2352
I17
aaa(lp2353
(lp2354
I8
aa(lp2355
I10
aa(lp2356
I12
aa(lp2357
I14
aI15
aa(lp2358
I17
aaa(lp2359
(lp2360
I0
aI1
aa(lp2361
I11
aa(lp2362
I13
aaa(lp2363
(lp2364
I1
aa(lp2365
I9
aI10
aa(lp2366
I12
aI13
aI14
aa(lp2367
I19
aI20
aa(lp2368
I22
aI23
aa(lp2369
I40
aaa(lp2370
(lp2371
I8
aI9
aaa(lp2372
(lp2373
I6
aI7
aa(lp2374
I11
aaa(lp2375
(lp2376
I0
aI1
aa(lp2377
I11
aaa(lp2378
(lp2379
I3
aa(lp2380
I11
aaa(lp2381
(lp2382
I3
aa(lp2383
I5
aaa(lp2384
(lp2385
I5
aa(lp2386
I17
aa(lp2387
I21
aa(lp2388
I25
aa(lp2389
I27
aa(lp2390
I30
aaa(lp2391
(lp2392
I3
aa(lp2393
I5
aa(lp2394
I9
aa(lp2395
I11
aa(lp2396
I13
aI14
aa(lp2397
I16
aaa(lp2398
(lp2399
I5
aa(lp2400
I10
aaa(lp2401
(lp2402
I10
aa(lp2403
I35
aI36
aa(lp2404
I40
aI41
aa(lp2405
I43
aaa(lp2406
(lp2407
I10
aa(lp2408
I12
aa(lp2409
I15
aa(lp2410
I20
aaa(lp2411
(lp2412
I10
aa(lp2413
I12
aa(lp2414
I17
aaa(lp2415
(lp2416
I0
aa(lp2417
I23
aI24
aI25
aa(lp2418
I29
aa(lp2419
I31
aI32
aI33
aaa(lp2420
(lp2421
I7
aa(lp2422
I20
aI21
aa(lp2423
I26
aI27
aa(lp2424
I31
aI32
aaa(lp2425
(lp2426
I6
aa(lp2427
I13
aI14
aa(lp2428
I17
aaa(lp2429
(lp2430
I9
aaa(lp2431
a(lp2432
(lp2433
I6
aa(lp2434
I12
aa(lp2435
I14
aa(lp2436
I17
aaa(lp2437
(lp2438
I13
aaa(lp2439
(lp2440
I0
aI1
aa(lp2441
I3
aI4
aI5
aa(lp2442
I10
aaa(lp2443
(lp2444
I0
aa(lp2445
I7
aa(lp2446
I9
aa(lp2447
I11
aa(lp2448
I13
aI14
aaa(lp2449
(lp2450
I0
aa(lp2451
I5
aa(lp2452
I7
aa(lp2453
I10
aa(lp2454
I15
aaa(lp2455
(lp2456
I7
aaa(lp2457
(lp2458
I0
aI1
aa(lp2459
I3
aaa(lp2460
(lp2461
I9
aa(lp2462
I11
aaa(lp2463
(lp2464
I0
aa(lp2465
I2
aa(lp2466
I15
aa(lp2467
I22
aaa(lp2468
(lp2469
I0
aa(lp2470
I5
aa(lp2471
I7
aaa(lp2472
a(lp2473
(lp2474
I1
aa(lp2475
I6
aaa(lp2476
(lp2477
I7
aaa(lp2478
(lp2479
I3
aa(lp2480
I10
aa(lp2481
I12
aa(lp2482
I15
aaa(lp2483
(lp2484
I5
aa(lp2485
I18
aa(lp2486
I20
aa(lp2487
I22
aa(lp2488
I24
aa(lp2489
I26
aa(lp2490
I29
aaa(lp2491
a(lp2492
(lp2493
I2
aa(lp2494
I4
aa(lp2495
I9
aa(lp2496
I18
aa(lp2497
I28
aI29
aI30
aI31
aI32
aaa(lp2498
(lp2499
I2
aa(lp2500
I12
aaa(lp2501
(lp2502
I6
aa(lp2503
I21
aa(lp2504
I28
aaa(lp2505
a(lp2506
(lp2507
I7
aa(lp2508
I12
aaa(lp2509
(lp2510
I5
aa(lp2511
I11
aa(lp2512
I29
aI30
aaa(lp2513
(lp2514
I6
aa(lp2515
I16
aa(lp2516
I29
aaa(lp2517
(lp2518
I17
aa(lp2519
I19
aaa(lp2520
(lp2521
I6
aaa(lp2522
(lp2523
I3
aaa(lp2524
(lp2525
I6
aa(lp2526
I8
aI9
aI10
aa(lp2527
I20
aa(lp2528
I22
aa(lp2529
I25
aa(lp2530
I39
aaa(lp2531
(lp2532
I2
aI3
aa(lp2533
I5
aa(lp2534
I8
aa(lp2535
I15
aaa(lp2536
(lp2537
I0
aa(lp2538
I8
aaa(lp2539
(lp2540
I2
aa(lp2541
I9
aaa(lp2542
(lp2543
I0
aa(lp2544
I6
aa(lp2545
I12
aaa(lp2546
(lp2547
I7
aI8
aa(lp2548
I17
aa(lp2549
I30
aa(lp2550
I51
aa(lp2551
I61
aaa(lp2552
(lp2553
I0
aa(lp2554
I2
aI3
aaa(lp2555
(lp2556
I4
aaa(lp2557
(lp2558
I3
aaa(lp2559
(lp2560
I2
aa(lp2561
I11
aaa(lp2562
(lp2563
I0
aa(lp2564
I2
aI3
aaa(lp2565
(lp2566
I4
aaa(lp2567
(lp2568
I3
aaa(lp2569
(lp2570
I6
aa(lp2571
I16
aaa(lp2572
(lp2573
I6
aa(lp2574
I8
aI9
aa(lp2575
I18
aaa(lp2576
a(lp2577
a(lp2578
(lp2579
I6
aa(lp2580
I8
aa(lp2581
I10
aa(lp2582
I12
aa(lp2583
I15
aaa(lp2584
(lp2585
I7
aa(lp2586
I14
aaa(lp2587
(lp2588
I8
aa(lp2589
I25
aaa(lp2590
(lp2591
I9
aa(lp2592
I18
aa(lp2593
I20
aa(lp2594
I22
aa(lp2595
I25
aaa(lp2596
(lp2597
I14
aa(lp2598
I24
aa(lp2599
I31
aa(lp2600
I38
aI39
aI40
aa(lp2601
I47
aa(lp2602
I54
aI55
aI56
aI57
aI58
aa(lp2603
I65
aa(lp2604
I72
aI73
aa(lp2605
I80
aa(lp2606
I88
aaa(lp2607
(lp2608
I2
aa(lp2609
I11
aI12
aa(lp2610
I22
aI23
aaa(lp2611
(lp2612
I2
aa(lp2613
I5
aI6
aa(lp2614
I15
aI16
aa(lp2615
I21
aa(lp2616
I24
aI25
aI26
aa(lp2617
I32
aaa(lp2618
(lp2619
I6
aa(lp2620
I8
aI9
aa(lp2621
I13
aa(lp2622
I26
aaa(lp2623
(lp2624
I1
aa(lp2625
I7
aa(lp2626
I17
aaa(lp2627
(lp2628
I6
aa(lp2629
I20
aaa(lp2630
(lp2631
I12
aaa(lp2632
(lp2633
I9
aa(lp2634
I14
aI15
aI16
aaa(lp2635
(lp2636
I6
aI7
aI8
aaa(lp2637
a(lp2638
(lp2639
I0
aa(lp2640
I11
aa(lp2641
I21
aaa(lp2642
(lp2643
I8
aI9
aI10
aI11
aaa(lp2644
(lp2645
I7
aa(lp2646
I16
aaa(lp2647
(lp2648
I9
aa(lp2649
I16
aa(lp2650
I21
aa(lp2651
I25
aaa(lp2652
a(lp2653
(lp2654
I15
aa(lp2655
I17
aaa(lp2656
(lp2657
I10
aa(lp2658
I19
aa(lp2659
I25
aa(lp2660
I39
aaa(lp2661
(lp2662
I7
aa(lp2663
I14
aa(lp2664
I23
aa(lp2665
I30
aaa(lp2666
(lp2667
I17
aaa(lp2668
(lp2669
I7
aI8
aI9
aaa(lp2670
(lp2671
I6
aa(lp2672
I8
aa(lp2673
I11
aa(lp2674
I14
aa(lp2675
I16
aaa(lp2676
a(lp2677
(lp2678
I9
aa(lp2679
I14
aa(lp2680
I16
aa(lp2681
I18
aaa(lp2682
(lp2683
I1
aa(lp2684
I3
aa(lp2685
I9
aa(lp2686
I11
aa(lp2687
I59
aI60
aaa(lp2688
(lp2689
I8
aa(lp2690
I12
aaa(lp2691
(lp2692
I11
aaa(lp2693
(lp2694
I8
aaa(lp2695
(lp2696
I6
aaa(lp2697
(lp2698
I6
aaa(lp2699
(lp2700
I9
aa(lp2701
I20
aaa(lp2702
(lp2703
I0
aaa(lp2704
(lp2705
I0
aa(lp2706
I3
aa(lp2707
I16
aI17
aaa(lp2708
(lp2709
I15
aI16
aaa(lp2710
(lp2711
I0
aI1
aaa(lp2712
(lp2713
I0
aa(lp2714
I4
aI5
aaa(lp2715
(lp2716
I0
aa(lp2717
I8
aI9
aa(lp2718
I12
aI13
aaa(lp2719
(lp2720
I0
aa(lp2721
I13
aa(lp2722
I15
aa(lp2723
I17
aa(lp2724
I19
aa(lp2725
I21
aa(lp2726
I23
aa(lp2727
I25
aa(lp2728
I27
aa(lp2729
I29
aa(lp2730
I33
aaa(lp2731
(lp2732
I5
aa(lp2733
I8
aI9
aaa(lp2734
a(lp2735
(lp2736
I2
aaa(lp2737
(lp2738
I8
aa(lp2739
I12
aa(lp2740
I14
aaa(lp2741
(lp2742
I13
aaa(lp2743
(lp2744
I0
aa(lp2745
I20
aa(lp2746
I22
aa(lp2747
I25
aaa(lp2748
a(lp2749
(lp2750
I4
aI5
aa(lp2751
I7
aa(lp2752
I10
aa(lp2753
I13
aI14
aa(lp2754
I17
aI18
aaa(lp2755
(lp2756
I3
aaa(lp2757
(lp2758
I0
aa(lp2759
I7
aa(lp2760
I10
aa(lp2761
I12
aa(lp2762
I14
aa(lp2763
I16
aa(lp2764
I18
aa(lp2765
I21
aI22
aaa(lp2766
(lp2767
I24
aa(lp2768
I26
aaa(lp2769
a(lp2770
(lp2771
I7
aa(lp2772
I9
aaa(lp2773
a(lp2774
(lp2775
I12
aI13
aa(lp2776
I15
aa(lp2777
I17
aI18
aI19
aI20
aa(lp2778
I22
aaa(lp2779
(lp2780
I16
aa(lp2781
I19
aI20
aa(lp2782
I22
aaa(lp2783
(lp2784
I0
aa(lp2785
I31
aa(lp2786
I40
aaa(lp2787
(lp2788
I2
aaa(lp2789
(lp2790
I4
aa(lp2791
I6
aaa(lp2792
(lp2793
I0
aaa(lp2794
(lp2795
I0
aa(lp2796
I2
aa(lp2797
I6
aI7
aaa(lp2798
(lp2799
I3
aI4
aa(lp2800
I7
aa(lp2801
I9
aaa(lp2802
(lp2803
I6
aI7
aaa(lp2804
a(lp2805
(lp2806
I0
aaa(lp2807
a(lp2808
a(lp2809
(lp2810
I9
aa(lp2811
I16
aaa(lp2812
(lp2813
I14
aa(lp2814
I31
aa(lp2815
I51
aa(lp2816
I65
aaa(lp2817
(lp2818
I10
aaa(lp2819
(lp2820
I12
aaa(lp2821
(lp2822
I2
aaa(lp2823
(lp2824
I3
aaa(lp2825
(lp2826
I1
aa(lp2827
I11
aaa(lp2828
(lp2829
I7
aaa(lp2830
(lp2831
I9
aaa(lp2832
(lp2833
I14
aaa(lp2834
(lp2835
I4
aa(lp2836
I24
aa(lp2837
I26
aI27
aa(lp2838
I29
aa(lp2839
I31
aaa(lp2840
(lp2841
I5
aaa(lp2842
(lp2843
I5
aa(lp2844
I21
aaa(lp2845
(lp2846
I3
aa(lp2847
I14
aaa(lp2848
(lp2849
I5
aa(lp2850
I7
aaa(lp2851
(lp2852
I0
aaa(lp2853
(lp2854
I17
aaa(lp2855
(lp2856
I11
aaa(lp2857
(lp2858
I0
aa(lp2859
I7
aaa(lp2860
(lp2861
I4
aa(lp2862
I8
aaa(lp2863
(lp2864
I8
aa(lp2865
I16
aa(lp2866
I18
aaa(lp2867
a(lp2868
(lp2869
I5
aaa(lp2870
(lp2871
I3
aa(lp2872
I5
aaa(lp2873
(lp2874
I2
aa(lp2875
I4
aI5
aI6
aI7
aI8
aa(lp2876
I10
aa(lp2877
I17
aI18
aa(lp2878
I20
aaa(lp2879
a(lp2880
(lp2881
I7
aa(lp2882
I18
aaa(lp2883
(lp2884
I2
aa(lp2885
I21
aaa(lp2886
(lp2887
I3
aa(lp2888
I5
aaa(lp2889
(lp2890
I0
aaa(lp2891
(lp2892
I0
aa(lp2893
I12
aaa(lp2894
(lp2895
I4
aa(lp2896
I12
aaa(lp2897
(lp2898
I4
aa(lp2899
I6
aaa(lp2900
(lp2901
I0
aa(lp2902
I10
aaa(lp2903
a(lp2904
(lp2905
I3
aa(lp2906
I11
aI12
aI13
aaa(lp2907
(lp2908
I6
aaa(lp2909
(lp2910
I5
aa(lp2911
I16
aI17
aa(lp2912
I20
aaa(lp2913
(lp2914
I0
aa(lp2915
I6
aa(lp2916
I8
aa(lp2917
I11
aaa(lp2918
(lp2919
I5
aa(lp2920
I11
aa(lp2921
I17
aI18
aa(lp2922
I21
aa(lp2923
I25
aa(lp2924
I32
aa(lp2925
I38
aa(lp2926
I41
aa(lp2927
I47
aaa(lp2928
(lp2929
I6
aa(lp2930
I9
aaa(lp2931
(lp2932
I5
aa(lp2933
I17
aa(lp2934
I18
aaa(lp2935
(lp2936
I8
aa(lp2937
I15
aaa(lp2938
(lp2939
I0
aa(lp2940
I7
aaa(lp2941
(lp2942
I7
aa(lp2943
I20
aaa(lp2944
(lp2945
I13
aaa(lp2946
(lp2947
I0
aa(lp2948
I4
aa(lp2949
I15
aaa(lp2950
(lp2951
I3
aaa(lp2952
(lp2953
I3
aI4
aa(lp2954
I6
aa(lp2955
I17
aaa(lp2956
(lp2957
I4
aa(lp2958
I11
aaa(lp2959
(lp2960
I3
aa(lp2961
I15
aaa(lp2962
a(lp2963
(lp2964
I9
aaa(lp2965
a(lp2966
(lp2967
I3
aaa(lp2968
a(lp2969
(lp2970
I0
aa(lp2971
I6
aa(lp2972
I8
aa(lp2973
I11
aaa(lp2974
(lp2975
I5
aa(lp2976
I11
aa(lp2977
I17
aI18
aa(lp2978
I21
aa(lp2979
I25
aa(lp2980
I32
aa(lp2981
I38
aa(lp2982
I41
aa(lp2983
I47
aaa(lp2984
(lp2985
I0
aaa(lp2986
(lp2987
I15
aa(lp2988
I19
aI20
aI21
aI22
aa(lp2989
I25
aa(lp2990
I27
aa(lp2991
I30
aaa(lp2992
(lp2993
I0
aI1
aI2
aI3
aa(lp2994
I5
aaa(lp2995
(lp2996
I5
aI6
aa(lp2997
I11
aI12
aI13
aI14
aa(lp2998
I18
aI19
aI20
aI21
aa(lp2999
I23
aa(lp3000
I29
aa(lp3001
I31
aa(lp3002
I33
aa(lp3003
I35
aa(lp3004
I54
aaa(lp3005
(lp3006
I4
aa(lp3007
I7
aaa(lp3008
(lp3009
I4
aa(lp3010
I16
aa(lp3011
I18
aa(lp3012
I20
aa(lp3013
I22
aa(lp3014
I24
aa(lp3015
I26
aa(lp3016
I28
aa(lp3017
I30
aa(lp3018
I32
aa(lp3019
I34
aa(lp3020
I36
aa(lp3021
I40
aaa(lp3022
(lp3023
I7
aaa(lp3024
(lp3025
I4
aa(lp3026
I15
aa(lp3027
I17
aa(lp3028
I19
aa(lp3029
I21
aa(lp3030
I23
aa(lp3031
I25
aa(lp3032
I27
aa(lp3033
I35
aaa(lp3034
a(lp3035
(lp3036
I4
aaa(lp3037
(lp3038
I2
aaa(lp3039
a(lp3040
(lp3041
I0
aaa(lp3042
(lp3043
I7
aI8
aa(lp3044
I10
aa(lp3045
I13
aa(lp3046
I15
aa(lp3047
I18
aa(lp3048
I25
aaa(lp3049
(lp3050
I11
aa(lp3051
I15
aI16
aI17
aI18
aI19
aaa(lp3052
(lp3053
I7
aa(lp3054
I17
aI18
aI19
aI20
aI21
aaa(lp3055
(lp3056
I4
aa(lp3057
I6
aaa(lp3058
(lp3059
I6
aI7
aaa(lp3060
(lp3061
I2
aa(lp3062
I12
aaa(lp3063
(lp3064
I14
aI15
aa(lp3065
I17
aaa(lp3066
(lp3067
I10
aa(lp3068
I12
aaa(lp3069
(lp3070
I2
aI3
aa(lp3071
I8
aaa(lp3072
a(lp3073
(lp3074
I12
aaa(lp3075
(lp3076
I4
aaa(lp3077
(lp3078
I6
aa(lp3079
I11
aa(lp3080
I13
aaa(lp3081
(lp3082
I0
aa(lp3083
I4
aa(lp3084
I6
aI7
aI8
aa(lp3085
I19
aI20
aa(lp3086
I22
aa(lp3087
I25
aI26
aI27
aI28
aI29
aa(lp3088
I46
aaa(lp3089
(lp3090
I6
aaa(lp3091
(lp3092
I0
aaa(lp3093
(lp3094
I6
aaa(lp3095
(lp3096
I15
aa(lp3097
I17
aI18
aa(lp3098
I20
aa(lp3099
I25
aaa(lp3100
(lp3101
I7
aaa(lp3102
(lp3103
I8
aa(lp3104
I10
aaa(lp3105
(lp3106
I9
aa(lp3107
I13
aaa(lp3108
(lp3109
I6
aaa(lp3110
(lp3111
I6
aa(lp3112
I15
aaa(lp3113
(lp3114
I9
aa(lp3115
I16
aa(lp3116
I18
aa(lp3117
I20
aa(lp3118
I23
aaa(lp3119
(lp3120
I7
aaa(lp3121
(lp3122
I16
aI17
aa(lp3123
I22
aI23
aI24
aI25
aa(lp3124
I27
aa(lp3125
I31
aI32
aI33
aa(lp3126
I35
aI36
aI37
aI38
aI39
aI40
aaa(lp3127
(lp3128
I14
aa(lp3129
I21
aa(lp3130
I23
aaa(lp3131
(lp3132
I0
aa(lp3133
I5
aaa(lp3134
(lp3135
I0
aa(lp3136
I5
aaa(lp3137
(lp3138
I17
aa(lp3139
I19
aa(lp3140
I27
aaa(lp3141
(lp3142
I0
aa(lp3143
I7
aa(lp3144
I19
aaa(lp3145
(lp3146
I0
aa(lp3147
I5
aaa(lp3148
(lp3149
I20
aa(lp3150
I26
aa(lp3151
I28
aa(lp3152
I30
aa(lp3153
I32
aI33
aa(lp3154
I35
aI36
aa(lp3155
I39
aI40
aI41
aaa(lp3156
(lp3157
I0
aa(lp3158
I10
aa(lp3159
I15
aaa(lp3160
a(lp3161
(lp3162
I4
aa(lp3163
I10
aa(lp3164
I16
aaa(lp3165
(lp3166
I3
aaa(lp3167
(lp3168
I3
aa(lp3169
I5
aaa(lp3170
(lp3171
I0
aa(lp3172
I8
aa(lp3173
I17
aa(lp3174
I19
aa(lp3175
I24
aaa(lp3176
a(lp3177
(lp3178
I3
aa(lp3179
I5
aaa(lp3180
(lp3181
I7
aI8
aI9
aI10
aI11
aa(lp3182
I14
aa(lp3183
I16
aa(lp3184
I19
aa(lp3185
I22
aa(lp3186
I25
aa(lp3187
I33
aaa(lp3188
(lp3189
I0
aa(lp3190
I8
aa(lp3191
I10
aa(lp3192
I16
aa(lp3193
I28
aaa(lp3194
(lp3195
I1
aa(lp3196
I8
aa(lp3197
I15
aaa(lp3198
(lp3199
I22
aa(lp3200
I24
aaa(lp3201
(lp3202
I3
aa(lp3203
I5
aa(lp3204
I7
aa(lp3205
I10
aa(lp3206
I24
aa(lp3207
I27
aI28
aa(lp3208
I31
aaa(lp3209
(lp3210
I6
aa(lp3211
I8
aaa(lp3212
(lp3213
I4
aa(lp3214
I11
aaa(lp3215
(lp3216
I3
aaa(lp3217
(lp3218
I9
aa(lp3219
I14
aa(lp3220
I19
aa(lp3221
I23
aaa(lp3222
(lp3223
I0
aa(lp3224
I10
aa(lp3225
I12
aa(lp3226
I14
aa(lp3227
I17
aaa(lp3228
(lp3229
I19
aaa(lp3230
(lp3231
I1
aa(lp3232
I12
aa(lp3233
I14
aI15
aa(lp3234
I26
aI27
aa(lp3235
I32
aI33
aaa(lp3236
(lp3237
I9
aaa(lp3238
(lp3239
I3
aa(lp3240
I10
aI11
aa(lp3241
I16
aI17
aI18
aI19
aa(lp3242
I21
aa(lp3243
I23
aa(lp3244
I25
aa(lp3245
I27
aa(lp3246
I29
aa(lp3247
I31
aa(lp3248
I33
aaa(lp3249
(lp3250
I4
aI5
aI6
aaa(lp3251
(lp3252
I31
aaa(lp3253
(lp3254
I0
aa(lp3255
I9
aaa(lp3256
(lp3257
I6
aa(lp3258
I8
aI9
aaa(lp3259
a(lp3260
(lp3261
I2
aI3
aa(lp3262
I5
aa(lp3263
I8
aI9
aa(lp3264
I12
aa(lp3265
I14
aa(lp3266
I16
aI17
aaa(lp3267
(lp3268
I0
aa(lp3269
I5
aI6
aa(lp3270
I11
aa(lp3271
I13
aa(lp3272
I15
aa(lp3273
I17
aaa(lp3274
(lp3275
I3
aaa(lp3276
(lp3277
I8
aa(lp3278
I10
aa(lp3279
I13
aI14
aI15
aaa(lp3280
(lp3281
I7
aI8
aa(lp3282
I13
aa(lp3283
I15
aa(lp3284
I18
aa(lp3285
I35
aaa(lp3286
(lp3287
I2
aaa(lp3288
(lp3289
I6
aa(lp3290
I12
aI13
aaa(lp3291
(lp3292
I0
aaa(lp3293
(lp3294
I11
aa(lp3295
I15
aaa(lp3296
(lp3297
I3
aI4
aa(lp3298
I7
aa(lp3299
I11
aaa(lp3300
a(lp3301
(lp3302
I3
aa(lp3303
I9
aa(lp3304
I12
aa(lp3305
I14
aa(lp3306
I27
aa(lp3307
I30
aa(lp3308
I33
aa(lp3309
I40
aaa(lp3310
(lp3311
I0
aa(lp3312
I5
aa(lp3313
I16
aaa(lp3314
(lp3315
I3
aa(lp3316
I11
aa(lp3317
I20
aaa(lp3318
(lp3319
I4
aa(lp3320
I10
aaa(lp3321
(lp3322
I5
aa(lp3323
I9
aaa(lp3324
(lp3325
I0
aaa(lp3326
(lp3327
I2
aI3
aa(lp3328
I5
aa(lp3329
I11
aaa(lp3330
(lp3331
I6
aa(lp3332
I9
aa(lp3333
I16
aaa(lp3334
(lp3335
I0
aa(lp3336
I8
aa(lp3337
I10
aaa(lp3338
(lp3339
I3
aa(lp3340
I8
aa(lp3341
I10
aa(lp3342
I22
aa(lp3343
I24
aaa(lp3344
(lp3345
I4
aa(lp3346
I8
aa(lp3347
I11
aI12
aa(lp3348
I14
aa(lp3349
I16
aa(lp3350
I20
aI21
aI22
aI23
aa(lp3351
I26
aa(lp3352
I29
aI30
aI31
aI32
aa(lp3353
I36
aaa(lp3354
(lp3355
I7
aaa(lp3356
(lp3357
I1
aa(lp3358
I4
aa(lp3359
I8
aaa(lp3360
(lp3361
I0
aa(lp3362
I7
aI8
aa(lp3363
I10
aa(lp3364
I12
aa(lp3365
I15
aaa(lp3366
(lp3367
I5
aa(lp3368
I13
aa(lp3369
I16
aaa(lp3370
(lp3371
I14
aa(lp3372
I16
aaa(lp3373
(lp3374
I8
aa(lp3375
I12
aaa(lp3376
(lp3377
I8
aa(lp3378
I10
aa(lp3379
I21
aa(lp3380
I24
aI25
aaa(lp3381
(lp3382
I5
aa(lp3383
I10
aaa(lp3384
(lp3385
I0
aa(lp3386
I3
aI4
aI5
aI6
aI7
aa(lp3387
I17
aa(lp3388
I28
aaa(lp3389
a(lp3390
(lp3391
I3
aa(lp3392
I19
aaa(lp3393
(lp3394
I3
aa(lp3395
I12
aI13
aa(lp3396
I17
aa(lp3397
I19
aa(lp3398
I22
aI23
aa(lp3399
I27
aa(lp3400
I29
aa(lp3401
I32
aa(lp3402
I34
aa(lp3403
I40
aI41
aaa(lp3404
(lp3405
I8
aaa(lp3406
(lp3407
I10
aaa(lp3408
(lp3409
I2
aa(lp3410
I6
aa(lp3411
I15
aa(lp3412
I32
aaa(lp3413
(lp3414
I0
aa(lp3415
I4
aa(lp3416
I6
aaa(lp3417
(lp3418
I0
aa(lp3419
I7
aaa(lp3420
(lp3421
I0
aa(lp3422
I11
aa(lp3423
I21
aaa(lp3424
(lp3425
I13
aaa(lp3426
(lp3427
I1
aa(lp3428
I30
aaa(lp3429
(lp3430
I6
aa(lp3431
I19
aa(lp3432
I21
aa(lp3433
I23
aa(lp3434
I25
aa(lp3435
I28
aaa(lp3436
(lp3437
I10
aa(lp3438
I16
aa(lp3439
I20
aa(lp3440
I26
aaa(lp3441
(lp3442
I9
aI10
aI11
aI12
aa(lp3443
I14
aa(lp3444
I16
aa(lp3445
I18
aa(lp3446
I28
aaa(lp3447
(lp3448
I6
aaa(lp3449
(lp3450
I0
aa(lp3451
I7
aI8
aI9
aI10
aa(lp3452
I12
aa(lp3453
I14
aa(lp3454
I16
aa(lp3455
I18
aI19
aa(lp3456
I21
aa(lp3457
I24
aaa(lp3458
(lp3459
I3
aI4
aa(lp3460
I8
aa(lp3461
I10
aI11
aa(lp3462
I20
aaa(lp3463
(lp3464
I0
aaa(lp3465
(lp3466
I4
aa(lp3467
I7
aI8
aaa(lp3468
(lp3469
I0
aI1
aaa(lp3470
(lp3471
I16
aa(lp3472
I22
aa(lp3473
I42
aa(lp3474
I44
aa(lp3475
I46
aa(lp3476
I48
aa(lp3477
I50
aa(lp3478
I52
aa(lp3479
I54
aaa(lp3480
(lp3481
I2
aa(lp3482
I19
aaa(lp3483
a(lp3484
(lp3485
I8
aaa(lp3486
(lp3487
I3
aa(lp3488
I5
aI6
aaa(lp3489
(lp3490
I21
aI22
aa(lp3491
I24
aa(lp3492
I26
aa(lp3493
I28
aI29
aa(lp3494
I31
aa(lp3495
I33
aa(lp3496
I36
aaa(lp3497
(lp3498
I7
aa(lp3499
I17
aaa(lp3500
(lp3501
I6
aa(lp3502
I15
aa(lp3503
I17
aa(lp3504
I21
aaa(lp3505
(lp3506
I3
aaa(lp3507
(lp3508
I0
aa(lp3509
I20
aI21
aI22
aa(lp3510
I49
aa(lp3511
I56
aI57
aI58
aa(lp3512
I110
aaa(lp3513
(lp3514
I6
aa(lp3515
I14
aI15
aaa(lp3516
(lp3517
I4
aI5
aa(lp3518
I15
aaa(lp3519
(lp3520
I0
aI1
aI2
aI3
aa(lp3521
I24
aa(lp3522
I27
aI28
aI29
aI30
aaa(lp3523
(lp3524
I11
aa(lp3525
I13
aI14
aaa(lp3526
(lp3527
I1
aI2
aa(lp3528
I15
aa(lp3529
I18
aI19
aa(lp3530
I24
aI25
aaa(lp3531
a(lp3532
(lp3533
I0
aI1
aI2
aI3
aI4
aaa(lp3534
a(lp3535
a(lp3536
(lp3537
I23
aI24
aI25
aI26
aI27
aI28
aI29
aI30
aI31
aI32
aI33
aa(lp3538
I35
aa(lp3539
I38
aa(lp3540
I54
aI55
aI56
aI57
aI58
aI59
aI60
aI61
aI62
aI63
aI64
aaa(lp3541
(lp3542
I2
aI3
aI4
aI5
aI6
aI7
aI8
aI9
aI10
aI11
aI12
aa(lp3543
I31
aI32
aI33
aI34
aI35
aI36
aI37
aI38
aI39
aI40
aI41
aI42
aI43
aI44
aI45
aI46
aI47
aa(lp3544
I49
aa(lp3545
I74
aI75
aI76
aI77
aI78
aI79
aI80
aa(lp3546
I100
aa(lp3547
I102
aI103
aI104
aI105
aI106
aI107
aI108
aI109
aI110
aI111
aI112
aaa(lp3548
(lp3549
I4
aI5
aI6
aI7
aI8
aI9
aI10
aI11
aI12
aI13
aI14
aa(lp3550
I18
aI19
aI20
aI21
aI22
aI23
aI24
aI25
aI26
aI27
aI28
aa(lp3551
I46
aI47
aI48
aI49
aI50
aI51
aI52
aa(lp3552
I60
aI61
aI62
aI63
aI64
aI65
aI66
aI67
aI68
aI69
aI70
aaa(lp3553
(lp3554
I48
aI49
aI50
aI51
aI52
aI53
aI54
aI55
aI56
aI57
aI58
aa(lp3555
I66
aI67
aI68
aI69
aI70
aI71
aI72
aI73
aI74
aI75
aI76
aa(lp3556
I84
aI85
aI86
aI87
aI88
aI89
aI90
aI91
aI92
aI93
aI94
aaa(lp3557
(lp3558
I9
aI10
aI11
aI12
aI13
aI14
aa(lp3559
I28
aI29
aI30
aI31
aI32
aI33
aI34
aI35
aI36
aI37
aI38
aa(lp3560
I43
aa(lp3561
I54
aaa(lp3562
(lp3563
I1
aI2
aI3
aI4
aI5
aI6
aI7
aI8
aI9
aI10
aI11
aa(lp3564
I38
aa(lp3565
I57
aI58
aI59
aI60
aI61
aI62
aI63
aI64
aI65
aI66
aI67
aa(lp3566
I75
aI76
aI77
aI78
aI79
aI80
aI81
aI82
aI83
aI84
aI85
aaa(lp3567
(lp3568
I8
aI9
aI10
aI11
aI12
aa(lp3569
I20
aI21
aI22
aI23
aI24
aI25
aI26
aI27
aI28
aI29
aI30
aa(lp3570
I32
aa(lp3571
I36
aI37
aI38
aI39
aI40
aI41
aI42
aI43
aI44
aI45
aI46
aaa(lp3572
(lp3573
I6
aI7
aI8
aI9
aI10
aaa(lp3574
(lp3575
I2
aa(lp3576
I11
aa(lp3577
I13
aaa(lp3578
(lp3579
I0
aaa(lp3580
(lp3581
I11
aa(lp3582
I19
aaa(lp3583
(lp3584
I4
aaa(lp3585
(lp3586
I6
aaa(lp3587
(lp3588
I6
aa(lp3589
I13
aaa(lp3590
(lp3591
I0
aaa(lp3592
(lp3593
I4
aa(lp3594
I23
aaa(lp3595
a(lp3596
(lp3597
I3
aa(lp3598
I16
aaa(lp3599
a(lp3600
a(lp3601
(lp3602
I4
aaa(lp3603
(lp3604
I15
aa(lp3605
I26
aaa(lp3606
(lp3607
I3
aa(lp3608
I5
aaa(lp3609
(lp3610
I0
aa(lp3611
I2
aa(lp3612
I4
aI5
aaa(lp3613
(lp3614
I0
aaa(lp3615
(lp3616
I1
aa(lp3617
I3
aa(lp3618
I4
aa(lp3619
I13
aa(lp3620
I15
aa(lp3621
I17
aaa(lp3622
a(lp3623
a(lp3624
(lp3625
I3
aa(lp3626
I5
aaa(lp3627
(lp3628
I7
aaa(lp3629
(lp3630
I0
aa(lp3631
I2
aa(lp3632
I6
aa(lp3633
I8
aa(lp3634
I14
aaa(lp3635
(lp3636
I6
aaa(lp3637
a(lp3638
(lp3639
I3
aI4
aI5
aa(lp3640
I9
aa(lp3641
I14
aaa(lp3642
(lp3643
I9
aI10
aI11
aa(lp3644
I21
aa(lp3645
I26
aaa(lp3646
(lp3647
I17
aI18
aI19
aa(lp3648
I24
aa(lp3649
I32
aaa(lp3650
(lp3651
I0
aa(lp3652
I25
aa(lp3653
I32
aa(lp3654
I40
aI41
aI42
aaa(lp3655
(lp3656
I3
aa(lp3657
I10
aa(lp3658
I21
aa(lp3659
I30
aaa(lp3660
(lp3661
I2
aa(lp3662
I4
aaa(lp3663
(lp3664
I7
aI8
aI9
aa(lp3665
I16
aaa(lp3666
(lp3667
I4
aaa(lp3668
(lp3669
I6
aa(lp3670
I11
aI12
aI13
aa(lp3671
I15
aaa(lp3672
a(lp3673
(lp3674
I6
aaa(lp3675
(lp3676
I0
aaa(lp3677
a(lp3678
(lp3679
I5
aa(lp3680
I19
aaa(lp3681
(lp3682
I3
aa(lp3683
I7
aaa(lp3684
(lp3685
I6
aaa(lp3686
(lp3687
I8
aaa(lp3688
(lp3689
I15
aa(lp3690
I17
aa(lp3691
I19
aI20
aI21
aa(lp3692
I37
aaa(lp3693
a(lp3694
(lp3695
I3
aa(lp3696
I19
aa(lp3697
I23
aaa(lp3698
(lp3699
I4
aaa(lp3700
(lp3701
I9
aaa(lp3702
(lp3703
I6
aa(lp3704
I12
aaa(lp3705
(lp3706
I2
aI3
aaa(lp3707
(lp3708
I12
aa(lp3709
I22
aaa(lp3710
(lp3711
I0
aa(lp3712
I2
aaa(lp3713
(lp3714
I10
aaa(lp3715
(lp3716
I16
aaa(lp3717
(lp3718
I8
aa(lp3719
I18
aaa(lp3720
(lp3721
I25
aaa(lp3722
(lp3723
I4
aa(lp3724
I12
aaa(lp3725
(lp3726
I9
aaa(lp3727
a(lp3728
(lp3729
I0
aa(lp3730
I13
aa(lp3731
I29
aa(lp3732
I45
aa(lp3733
I61
aaa(lp3734
(lp3735
I1
aa(lp3736
I10
aaa(lp3737
(lp3738
I0
aa(lp3739
I4
aa(lp3740
I6
aa(lp3741
I8
aa(lp3742
I10
aa(lp3743
I13
aaa(lp3744
(lp3745
I6
aaa(lp3746
a(lp3747
a(lp3748
a(lp3749
(lp3750
I17
aI18
aI19
aa(lp3751
I21
aaa(lp3752
(lp3753
I4
aaa(lp3754
a(lp3755
a(lp3756
(lp3757
I0
aa(lp3758
I5
aI6
aaa(lp3759
(lp3760
I19
aaa(lp3761
(lp3762
I12
aa(lp3763
I14
aa(lp3764
I16
aa(lp3765
I18
aaa(lp3766
(lp3767
I0
aa(lp3768
I2
aa(lp3769
I8
aaa(lp3770
a(lp3771
a(lp3772
(lp3773
I9
aaa(lp3774
a(lp3775
(lp3776
I25
aa(lp3777
I44
aI45
aI46
aaa(lp3778
a(lp3779
a(lp3780
(lp3781
I3
aI4
aa(lp3782
I6
aI7
aI8
aaa(lp3783
(lp3784
I0
aI1
aa(lp3785
I7
aaa(lp3786
(lp3787
I6
aI7
aa(lp3788
I9
aI10
aI11
aaa(lp3789
(lp3790
I12
aI13
aa(lp3791
I15
aI16
aI17
aaa(lp3792
(lp3793
I5
aaa(lp3794
(lp3795
I11
aa(lp3796
I13
aaa(lp3797
(lp3798
I3
aaa(lp3799
(lp3800
I15
aa(lp3801
I19
aa(lp3802
I25
aaa(lp3803
(lp3804
I11
aa(lp3805
I22
aa(lp3806
I29
aa(lp3807
I33
aaa(lp3808
(lp3809
I11
aa(lp3810
I14
aa(lp3811
I30
aaa(lp3812
(lp3813
I0
aaa(lp3814
(lp3815
I0
aa(lp3816
I3
aI4
aaa(lp3817
(lp3818
I17
aaa(lp3819
(lp3820
I4
aaa(lp3821
(lp3822
I0
aI1
aI2
aI3
aa(lp3823
I5
aa(lp3824
I7
aaa(lp3825
(lp3826
I0
aa(lp3827
I2
aa(lp3828
I8
aaa(lp3829
(lp3830
I15
aI16
aaa(lp3831
a(lp3832
a(lp3833
(lp3834
I14
aa(lp3835
I20
aI21
aa(lp3836
I24
aa(lp3837
I26
aaa(lp3838
(lp3839
I5
aI6
aa(lp3840
I10
aaa(lp3841
(lp3842
I6
aa(lp3843
I17
aa(lp3844
I19
aaa(lp3845
(lp3846
I0
aa(lp3847
I16
aaa(lp3848
(lp3849
I1
aaa(lp3850
(lp3851
I9
aa(lp3852
I14
aaa(lp3853
(lp3854
I7
aa(lp3855
I24
aaa(lp3856
(lp3857
I7
aaa(lp3858
(lp3859
I5
aa(lp3860
I8
aa(lp3861
I13
aa(lp3862
I19
aaa(lp3863
(lp3864
I5
aa(lp3865
I21
aaa(lp3866
(lp3867
I18
aaa(lp3868
(lp3869
I4
aa(lp3870
I10
aa(lp3871
I16
aa(lp3872
I22
aa(lp3873
I30
aaa(lp3874
(lp3875
I14
aaa(lp3876
(lp3877
I8
aa(lp3878
I14
aaa(lp3879
(lp3880
I5
aa(lp3881
I7
aaa(lp3882
(lp3883
I15
aaa(lp3884
(lp3885
I4
aa(lp3886
I45
aa(lp3887
I57
aaa(lp3888
(lp3889
I3
aa(lp3890
I14
aa(lp3891
I32
aI33
aaa(lp3892
(lp3893
I18
aa(lp3894
I23
aa(lp3895
I37
aaa(lp3896
a(lp3897
(lp3898
I5
aa(lp3899
I11
aaa(lp3900
a(lp3901
(lp3902
I3
aa(lp3903
I20
aaa(lp3904
(lp3905
I41
aaa(lp3906
a(lp3907
a(lp3908
(lp3909
I12
aa(lp3910
I20
aaa(lp3911
(lp3912
I17
aaa(lp3913
a(lp3914
a(lp3915
a(lp3916
(lp3917
I0
aaa(lp3918
a(lp3919
(lp3920
I15
aaa(lp3921
(lp3922
I11
aa(lp3923
I13
aa(lp3924
I15
aa(lp3925
I19
aI20
aaa(lp3926
a(lp3927
(lp3928
I10
aaa(lp3929
(lp3930
I2
aa(lp3931
I4
aa(lp3932
I11
aaa(lp3933
a(lp3934
(lp3935
I2
aaa(lp3936
(lp3937
I0
aaa(lp3938
(lp3939
I18
aI19
aaa(lp3940
a(lp3941
(lp3942
I23
aa(lp3943
I28
aI29
aI30
aa(lp3944
I32
aa(lp3945
I34
aa(lp3946
I36
aa(lp3947
I37
aaa(lp3948
(lp3949
I4
aa(lp3950
I21
aa(lp3951
I23
aaa(lp3952
(lp3953
I0
aaa(lp3954
(lp3955
I4
aaa(lp3956
a(lp3957
a(lp3958
(lp3959
I5
aaa(lp3960
(lp3961
I11
aa(lp3962
I22
aaa(lp3963
(lp3964
I4
aaa(lp3965
(lp3966
I3
aa(lp3967
I5
aI6
aI7
aaa(lp3968
(lp3969
I4
aI5
aI6
aa(lp3970
I8
aaa(lp3971
(lp3972
I6
aI7
aI8
aa(lp3973
I17
aaa(lp3974
(lp3975
I3
aa(lp3976
I5
aa(lp3977
I16
aa(lp3978
I36
aaa(lp3979
(lp3980
I0
aa(lp3981
I7
aaa(lp3982
(lp3983
I5
aI6
aI7
aa(lp3984
I12
aaa(lp3985
(lp3986
I7
aa(lp3987
I12
aa(lp3988
I14
aaa(lp3989
(lp3990
I18
aI19
aI20
aa(lp3991
I22
aaa(lp3992
(lp3993
I4
aa(lp3994
I7
aaa(lp3995
(lp3996
I10
aa(lp3997
I13
aaa(lp3998
(lp3999
I7
aaa(lp4000
(lp4001
I18
aaa(lp4002
(lp4003
I4
aa(lp4004
I6
aaa(lp4005
(lp4006
I17
aa(lp4007
I35
aaa(lp4008
a(lp4009
(lp4010
I3
aa(lp4011
I5
aa(lp4012
I10
aaa(lp4013
a(lp4014
(lp4015
I3
aaa(lp4016
(lp4017
I6
aaa(lp4018
(lp4019
I4
aaa(lp4020
(lp4021
I4
aaa(lp4022
(lp4023
I13
aa(lp4024
I21
aaa(lp4025
(lp4026
I2
aaa(lp4027
(lp4028
I12
aaa(lp4029
(lp4030
I14
aaa(lp4031
(lp4032
I3
aa(lp4033
I5
aaa(lp4034
a(lp4035
(lp4036
I0
aa(lp4037
I13
aaa(lp4038
(lp4039
I0
aa(lp4040
I15
aa(lp4041
I18
aaa(lp4042
(lp4043
I9
aa(lp4044
I22
aaa(lp4045
(lp4046
I8
aa(lp4047
I15
aaa(lp4048
(lp4049
I13
aa(lp4050
I17
aI18
aI19
aaa(lp4051
(lp4052
I5
aa(lp4053
I18
aa(lp4054
I21
aI22
aaa(lp4055
(lp4056
I6
aa(lp4057
I19
aaa(lp4058
(lp4059
I0
aa(lp4060
I4
aI5
aa(lp4061
I10
aaa(lp4062
(lp4063
I0
aa(lp4064
I6
aaa(lp4065
(lp4066
I1
aa(lp4067
I12
aaa(lp4068
(lp4069
I9
aa(lp4070
I12
aa(lp4071
I20
aa(lp4072
I26
aa(lp4073
I32
aa(lp4074
I34
aaa(lp4075
(lp4076
I22
aaa(lp4077
(lp4078
I3
aa(lp4079
I5
aa(lp4080
I18
aaa(lp4081
(lp4082
I5
aaa(lp4083
(lp4084
I12
aa(lp4085
I21
aa(lp4086
I23
aa(lp4087
I32
aI33
aaa(lp4088
(lp4089
I16
aa(lp4090
I18
aaa(lp4091
a(lp4092
(lp4093
I0
aa(lp4094
I20
aaa(lp4095
(lp4096
I6
aa(lp4097
I8
aaa(lp4098
(lp4099
I5
aa(lp4100
I8
aaa(lp4101
(lp4102
I16
aa(lp4103
I26
aaa(lp4104
a(lp4105
(lp4106
I0
aa(lp4107
I29
aa(lp4108
I32
aa(lp4109
I39
aaa(lp4110
(lp4111
I4
aaa(lp4112
(lp4113
I9
aI10
aaa(lp4114
a(lp4115
(lp4116
I8
aaa(lp4117
a(lp4118
(lp4119
I13
aaa(lp4120
a(lp4121
(lp4122
I15
aa(lp4123
I17
aa(lp4124
I19
aa(lp4125
I21
aaa(lp4126
(lp4127
I7
aa(lp4128
I10
aaa(lp4129
(lp4130
I8
aa(lp4131
I10
aaa(lp4132
a(lp4133
(lp4134
I5
aa(lp4135
I9
aa(lp4136
I11
aaa(lp4137
(lp4138
I3
aI4
aI5
aI6
aI7
aa(lp4139
I9
aI10
aI11
aaa(lp4140
(lp4141
I10
aI11
aI12
aa(lp4142
I14
aaa(lp4143
a(lp4144
(lp4145
I13
aaa(lp4146
a(lp4147
a(lp4148
(lp4149
I3
aI4
aI5
aI6
aI7
aa(lp4150
I14
aa(lp4151
I22
aI23
aI24
aI25
aaa(lp4152
a(lp4153
(lp4154
I3
aa(lp4155
I5
aa(lp4156
I7
aaa(lp4157
(lp4158
I3
aI4
aI5
aI6
aI7
aa(lp4159
I10
aI11
aI12
aa(lp4160
I14
aaa(lp4161
(lp4162
I3
aI4
aI5
aa(lp4163
I22
aI23
aI24
aI25
aI26
aI27
aI28
aI29
aI30
aI31
aI32
aI33
aa(lp4164
I35
aaa(lp4165
a(lp4166
(lp4167
I6
aaa(lp4168
(lp4169
I3
aa(lp4170
I5
aaa(lp4171
a(lp4172
(lp4173
I5
aa(lp4174
I8
aa(lp4175
I11
aaa(lp4176
(lp4177
I9
aaa(lp4178
(lp4179
I6
aaa(lp4180
(lp4181
I15
aaa(lp4182
(lp4183
I3
aa(lp4184
I14
aaa(lp4185
(lp4186
I18
aa(lp4187
I20
aaa(lp4188
a(lp4189
(lp4190
I10
aaa(lp4191
(lp4192
I4
aa(lp4193
I6
aa(lp4194
I9
aa(lp4195
I11
aaa(lp4196
(lp4197
I4
aa(lp4198
I6
aaa(lp4199
(lp4200
I8
aa(lp4201
I10
aa(lp4202
I28
aa(lp4203
I30
aa(lp4204
I32
aaa(lp4205
(lp4206
I0
aa(lp4207
I2
aaa(lp4208
(lp4209
I0
aaa(lp4210
a(lp4211
a(lp4212
(lp4213
I6
aa(lp4214
I9
aa(lp4215
I12
aaa(lp4216
(lp4217
I15
aa(lp4218
I22
aa(lp4219
I25
aaa(lp4220
(lp4221
I9
aa(lp4222
I11
aa(lp4223
I13
aaa(lp4224
(lp4225
I4
aa(lp4226
I18
aaa(lp4227
(lp4228
I22
aaa(lp4229
(lp4230
I4
aaa(lp4231
(lp4232
I11
aI12
aa(lp4233
I17
aaa(lp4234
(lp4235
I7
aaa(lp4236
(lp4237
I14
aa(lp4238
I35
aI36
aaa(lp4239
(lp4240
I7
aa(lp4241
I30
aI31
aI32
aaa(lp4242
a(lp4243
(lp4244
I8
aa(lp4245
I15
aI16
aI17
aaa(lp4246
(lp4247
I4
aaa(lp4248
(lp4249
I2
aa(lp4250
I4
aaa(lp4251
(lp4252
I7
aI8
aI9
aa(lp4253
I11
aa(lp4254
I19
aaa(lp4255
(lp4256
I3
aa(lp4257
I5
aaa(lp4258
a(lp4259
a(lp4260
a(lp4261
(lp4262
I11
aa(lp4263
I13
aa(lp4264
I16
aaa(lp4265
a(lp4266
(lp4267
I0
aa(lp4268
I2
aaa(lp4269
(lp4270
I0
aa(lp4271
I2
aaa(lp4272
(lp4273
I6
aa(lp4274
I9
aa(lp4275
I19
aa(lp4276
I24
aaa(lp4277
(lp4278
I3
aa(lp4279
I6
aa(lp4280
I8
aa(lp4281
I19
aaa(lp4282
(lp4283
I6
aa(lp4284
I28
aaa(lp4285
(lp4286
I11
aa(lp4287
I14
aaa(lp4288
(lp4289
I0
aa(lp4290
I7
aa(lp4291
I11
aa(lp4292
I16
aa(lp4293
I31
aaa(lp4294
(lp4295
I3
aaa(lp4296
a(lp4297
a(lp4298
(lp4299
I5
aa(lp4300
I25
aaa(lp4301
(lp4302
I10
aI11
aI12
aa(lp4303
I44
aaa(lp4304
(lp4305
I20
aaa(lp4306
(lp4307
I3
aa(lp4308
I5
aI6
aaa(lp4309
a(lp4310
(lp4311
I22
aa(lp4312
I26
aaa(lp4313
(lp4314
I0
aa(lp4315
I10
aa(lp4316
I12
aaa(lp4317
(lp4318
I4
aI5
aI6
aaa(lp4319
(lp4320
I0
aa(lp4321
I6
aaa(lp4322
(lp4323
I0
aa(lp4324
I4
aI5
aI6
aI7
aI8
aI9
aI10
aaa(lp4325
(lp4326
I10
aI11
aI12
aa(lp4327
I17
aaa(lp4328
a(lp4329
(lp4330
I0
aaa(lp4331
a(lp4332
(lp4333
I4
aa(lp4334
I16
aa(lp4335
I24
aa(lp4336
I32
aaa(lp4337
(lp4338
I16
aa(lp4339
I22
aa(lp4340
I34
aa(lp4341
I37
aaa(lp4342
(lp4343
I10
aa(lp4344
I14
aaa(lp4345
(lp4346
I7
aa(lp4347
I9
aa(lp4348
I28
aa(lp4349
I31
aaa(lp4350
(lp4351
I5
aa(lp4352
I7
aaa(lp4353
(lp4354
I5
aa(lp4355
I7
aaa(lp4356
(lp4357
I5
aa(lp4358
I14
aa(lp4359
I16
aaa(lp4360
(lp4361
I2
aaa(lp4362
a(lp4363
a(lp4364
a(lp4365
(lp4366
I9
aa(lp4367
I11
aaa(lp4368
(lp4369
I6
aa(lp4370
I8
aa(lp4371
I50
aI51
aaa(lp4372
a(lp4373
(lp4374
I9
aa(lp4375
I11
aa(lp4376
I30
aI31
aaa(lp4377
(lp4378
I0
aa(lp4379
I2
aa(lp4380
I8
aa(lp4381
I10
aaa(lp4382
(lp4383
I4
aa(lp4384
I6
aa(lp4385
I8
aa(lp4386
I13
aI14
aa(lp4387
I22
aaa(lp4388
(lp4389
I4
aa(lp4390
I6
aa(lp4391
I9
aa(lp4392
I11
aaa(lp4393
(lp4394
I0
aaa(lp4395
(lp4396
I2
aa(lp4397
I4
aa(lp4398
I6
aaa(lp4399
(lp4400
I0
aa(lp4401
I11
aaa(lp4402
a(lp4403
(lp4404
I7
aaa(lp4405
(lp4406
I4
aa(lp4407
I20
aa(lp4408
I24
aI25
aI26
aa(lp4409
I36
aaa(lp4410
(lp4411
I0
aa(lp4412
I11
aaa(lp4413
(lp4414
I5
aa(lp4415
I9
aa(lp4416
I18
aaa(lp4417
(lp4418
I8
aa(lp4419
I17
aaa.